L251 LINKER/LOCATER V4.66.93.0                                                          07/31/2024  16:59:11  PAGE 1


L251 LINKER/LOCATER V4.66.93.0, INVOKED BY:
D:\KEIL_V5\C251\BIN\L251.EXE .\Objects\main.obj, .\Objects\gpio_interrupt.obj, .\Objects\ebf_control.obj, .\Objects\ntc_
>> sampling.obj, .\Objects\STC32G_GPIO.obj, .\Objects\STC32G_Delay.obj, .\Objects\STC32G_UART.obj, .\Objects\STC32G_UART
>> _Isr.obj, .\Objects\STC32G_NVIC.obj, .\Objects\STC32G_ADC.obj, .\Objects\STC32G_PWM.obj TO .\Objects\temperature-cont
>> rol-switch PRINT (.\Listings\temperature-control-switch.map) CASE REMOVEUNUSED CLASSES (EDATA (0X0-0XFFF), HDATA (0X0
>> -0XFFF))


CPU MODE:     251 SOURCE MODE
INTR FRAME:   2 BYTES SAVED ON INTERRUPT
MEMORY MODEL: XSMALL WITH FLOATING POINT ARITHMETIC


INPUT MODULES INCLUDED:
  .\Objects\main.obj (main)
         COMMENT TYPE 0: C251 V5.60.0
  .\Objects\gpio_interrupt.obj (gpio_interrupt)
         COMMENT TYPE 0: C251 V5.60.0
  .\Objects\ebf_control.obj (ebf_control)
         COMMENT TYPE 0: C251 V5.60.0
  .\Objects\ntc_sampling.obj (ntc_sampling)
         COMMENT TYPE 0: C251 V5.60.0
  .\Objects\STC32G_GPIO.obj (STC32G_GPIO)
         COMMENT TYPE 0: C251 V5.60.0
  .\Objects\STC32G_Delay.obj (STC32G_Delay)
         COMMENT TYPE 0: C251 V5.60.0
  .\Objects\STC32G_UART.obj (STC32G_UART)
         COMMENT TYPE 0: C251 V5.60.0
  .\Objects\STC32G_UART_Isr.obj (STC32G_UART_Isr)
         COMMENT TYPE 0: C251 V5.60.0
  .\Objects\STC32G_NVIC.obj (STC32G_NVIC)
         COMMENT TYPE 0: C251 V5.60.0
  .\Objects\STC32G_ADC.obj (STC32G_ADC)
         COMMENT TYPE 0: C251 V5.60.0
  .\Objects\STC32G_PWM.obj (STC32G_PWM)
         COMMENT TYPE 0: C251 V5.60.0
  D:\KEIL_V5\C251\LIB\C2SFPXS.LIB (?C?FPADD)
         COMMENT TYPE 0: A251 V4.69.6.0
  D:\KEIL_V5\C251\LIB\C2SFPXS.LIB (?C?FPMUL)
         COMMENT TYPE 0: A251 V4.69.6.0
  D:\KEIL_V5\C251\LIB\C2SFPXS.LIB (?C?FPDIV)
         COMMENT TYPE 0: A251 V4.69.6.0
  D:\KEIL_V5\C251\LIB\C2SFPXS.LIB (?C?FPCMP)
         COMMENT TYPE 0: A251 V4.69.6.0
  D:\KEIL_V5\C251\LIB\C2SFPXS.LIB (?C?FCAST)
         COMMENT TYPE 0: A251 V4.69.6.0
  D:\KEIL_V5\C251\LIB\C2SFPXS.LIB (PRINTF)
         COMMENT TYPE 0: A251 V4.69.6.0
  D:\KEIL_V5\C251\LIB\C2SFPXS.LIB (LOG?_)
         COMMENT TYPE 0: A251 V4.69.6.0
  D:\KEIL_V5\C251\LIB\C2SFPXS.LIB (?C?FPGETOPN)
         COMMENT TYPE 0: A251 V4.69.6.0
  D:\KEIL_V5\C251\LIB\C2SFPXS.LIB (?C?PRNFMT)
         COMMENT TYPE 0: A251 V4.69.6.0
  D:\KEIL_V5\C251\LIB\C2SFPXS.LIB (?C?FPSERIES)
         COMMENT TYPE 0: A251 V4.69.6.0
  D:\KEIL_V5\C251\LIB\C2SFPXS.LIB (?C?FPCONVERT)
         COMMENT TYPE 0: A251 V4.69.6.0
  D:\KEIL_V5\C251\LIB\C2SFPXS.LIB (?C?FTNPWR)
         COMMENT TYPE 0: A251 V4.69.6.0
  D:\KEIL_V5\C251\LIB\C2SXS.LIB (?C_START)
         COMMENT TYPE 0: A251 V4.69.6.0
  D:\KEIL_V5\C251\LIB\C2SXS.LIB (?C?ULDIV)
         COMMENT TYPE 0: A251 V4.69.6.0


L251 LINKER/LOCATER V4.66.93.0                                                        07/31/2024  16:59:11  PAGE 2


ACTIVE MEMORY CLASSES OF MODULE:  .\Objects\temperature-control-switch (main)

BASE        START       END         USED      MEMORY CLASS
==========================================================
000000H     000000H     000FFFH     000475H   EDATA
000000H     000000H     000FFFH               HDATA
000000H     FF0000H     FFFFFFH     000162H   HCONST
FF0000H     FF0000H     FFFFFFH     0017A6H   CODE
000020H.0   000020H.0   00002FH.7   000000H.4 BIT
FF0000H     FF0000H     FFFFFFH     000004H   CONST
000000H     000000H     00007FH     000008H   DATA


MEMORY MAP OF MODULE:  .\Objects\temperature-control-switch (main)


START     STOP      LENGTH    ALIGN  RELOC    MEMORY CLASS   SEGMENT NAME
=========================================================================
000000H   000007H   000008H   ---    AT..     DATA           "REG BANK 0"
000008H.0 00001FH.7 000018H.0 ---    ---      **GAP**
000020H.0 000020H.1 000000H.2 BIT    UNIT     BIT            ?BI?STC32G_UART_ISR
000020H.2 000020H.2 000000H.1 BIT    UNIT     BIT            ?BI?MAIN
000020H.3 000020H.3 000000H.1 BIT    UNIT     BIT            _BIT_GROUP_
000020H.4 000020H   000000H.4 ---    ---      **GAP**
000021H   000334H   000314H   BYTE   UNIT     EDATA          ?ED?STC32G_UART
000335H   00035CH   000028H   BYTE   UNIT     EDATA          _EDATA_GROUP_
00035DH   00037CH   000020H   BYTE   UNIT     EDATA          ?ED?NTC_SAMPLING
00037DH   000395H   000019H   BYTE   UNIT     EDATA          ?ED?MAIN
000396H   000495H   000100H   BYTE   UNIT     EDATA          ?STACK
000496H   FEFFFFH   FEFB6AH   ---    ---      **GAP**
FF0000H   FF0002H   000003H   ---    OFFS..   CODE           ?CO?start251?4
FF0003H   FF0019H   000017H   BYTE   INSEG    CODE           ?PR?DELAY_MS?STC32G_DELAY
FF001AH   FF001DH   000004H   BYTE   UNIT     CONST          ?CO?PRINTF
FF001EH   FF0022H   000005H   ---    ---      **GAP**
FF0023H   FF0025H   000003H   ---    OFFS..   CODE           ?PR?IV?4
FF0026H   FF0038H   000013H   BYTE   UNIT     CODE           ?C_C51STARTUP
FF0039H   FF003BH   000003H   BYTE   UNIT     CODE           ?C_C51STARTUP?3
FF003CH   FF0042H   000007H   ---    ---      **GAP**
FF0043H   FF0045H   000003H   ---    OFFS..   CODE           ?PR?IV?8
FF0046H   FF007DH   000038H   BYTE   UNIT     CODE           ?CO?EBF_CONTROL
FF007EH   FF0089H   00000CH   BYTE   INSEG    CODE           ?PR?PUTCHAR?STC32G_UART
FF008AH   FF008AH   000001H   ---    ---      **GAP**
FF008BH   FF008DH   000003H   ---    OFFS..   CODE           ?PR?IV?17
FF008EH   FF0092H   000005H   ---    ---      **GAP**
FF0093H   FF0095H   000003H   ---    OFFS..   CODE           ?PR?IV?18
FF0096H   FF0120H   00008BH   BYTE   INSEG    CODE           ?PR?CALCULATIONTEMPERATURE?NTC_SAMPLING
FF0121H   FF012AH   00000AH   ---    ---      **GAP**
FF012BH   FF012DH   000003H   ---    OFFS..   CODE           ?PR?IV?37
FF012EH   FF0132H   000005H   ---    ---      **GAP**
FF0133H   FF0135H   000003H   ---    OFFS..   CODE           ?PR?IV?38
FF0136H   FF013AH   000005H   ---    ---      **GAP**
FF013BH   FF013DH   000003H   ---    OFFS..   CODE           ?PR?IV?39
FF013EH   FF0142H   000005H   ---    ---      **GAP**
FF0143H   FF0145H   000003H   ---    OFFS..   CODE           ?PR?IV?40
FF0146H   FF014AH   000005H   ---    ---      **GAP**
FF014BH   FF014DH   000003H   ---    OFFS..   CODE           ?PR?IV?41
FF014EH   FF0152H   000005H   ---    ---      **GAP**
FF0153H   FF0155H   000003H   ---    OFFS..   CODE           ?PR?IV?42
FF0156H   FF015AH   000005H   ---    ---      **GAP**
FF015BH   FF015DH   000003H   ---    OFFS..   CODE           ?PR?IV?43
FF015EH   FF0162H   000005H   ---    ---      **GAP**
FF0163H   FF0165H   000003H   ---    OFFS..   CODE           ?PR?IV?44
FF0166H   FF0B61H   0009FCH   BYTE   UNIT     CODE           ?C?LIB_CODE
FF0B62H   FF0EA1H   000340H   BYTE   INSEG    CODE           ?PR?UART_CONFIGURATION?STC32G_UART
FF0EA2H   FF1081H   0001E0H   BYTE   INSEG    CODE           ?PR?TEMP_CONTROL_SWITCH?MAIN
L251 LINKER/LOCATER V4.66.93.0                                                        07/31/2024  16:59:11  PAGE 3


FF1082H   FF10F2H   000071H   BYTE   INSEG    CODE           ?PR?BUBBLESORT?NTC_SAMPLING
FF10F3H   FF115EH   00006CH   BYTE   INSEG    CODE           ?PR?P0INT_ISR?GPIO_INTERRUPT
FF115FH   FF11CAH   00006CH   BYTE   INSEG    CODE           ?PR?P2INT_ISR?GPIO_INTERRUPT
FF11CBH   FF1233H   000069H   BYTE   INSEG    CODE           ?PR?UART2_ISR_HANDLER?STC32G_UART_ISR
FF1234H   FF1298H   000065H   BYTE   INSEG    CODE           ?PR?UART1_ISR_HANDLER?STC32G_UART_ISR
FF1299H   FF12FCH   000064H   BYTE   INSEG    CODE           ?PR?NTC_ADC_CONVERT?NTC_SAMPLING
FF12FDH   FF135DH   000061H   BYTE   INSEG    CODE           ?PR?P1INT_ISR?GPIO_INTERRUPT
FF135EH   FF13BEH   000061H   BYTE   INSEG    CODE           ?PR?P3INT_ISR?GPIO_INTERRUPT
FF13BFH   FF141FH   000061H   BYTE   INSEG    CODE           ?PR?P4INT_ISR?GPIO_INTERRUPT
FF1420H   FF1480H   000061H   BYTE   INSEG    CODE           ?PR?P6INT_ISR?GPIO_INTERRUPT
FF1481H   FF14E1H   000061H   BYTE   INSEG    CODE           ?PR?P7INT_ISR?GPIO_INTERRUPT
FF14E2H   FF1540H   00005FH   BYTE   INSEG    CODE           ?PR?GET_ADCRESULT?STC32G_ADC
FF1541H   FF159DH   00005DH   BYTE   INSEG    CODE           ?PR?ADC_INILIZE?STC32G_ADC
FF159EH   FF15F0H   000053H   BYTE   INSEG    CODE           ?PR?P5INT_ISR?GPIO_INTERRUPT
FF15F1H   FF1638H   000048H   BYTE   INSEG    CODE           ?PR?UART3_ISR_HANDLER?STC32G_UART_ISR
FF1639H   FF1680H   000048H   BYTE   INSEG    CODE           ?PR?UART4_ISR_HANDLER?STC32G_UART_ISR
FF1681H   FF16C8H   000048H   BYTE   INSEG    CODE           ?PR?NVIC_ADC_INIT?STC32G_NVIC
FF16C9H   FF1710H   000048H   BYTE   INSEG    CODE           ?PR?NVIC_UART1_INIT?STC32G_NVIC
FF1711H   FF1746H   000036H   BYTE   INSEG    CODE           ?PR?MAIN?MAIN
FF1747H   FF1775H   00002FH   BYTE   INSEG    CODE           ?PR?UART_CONFIG?MAIN
FF1776H   FF17A4H   00002FH   BYTE   INSEG    CODE           ?PR?ADC_CONFIG?NTC_SAMPLING
FF17A5H   FF17B9H   000015H   BYTE   INSEG    CODE           ?PR?GPIO_CONFIG?MAIN
FF17BAH   FF17CAH   000011H   BYTE   INSEG    CODE           ?PR?DATASWAP?NTC_SAMPLING
FF17CBH   FF17DAH   000010H   BYTE   INSEG    CODE           ?PR?TX1_WRITE2BUFF?STC32G_UART
FF17DBH   FF17E8H   00000EH   BYTE   INSEG    CODE           ?PR?ADC_POWERCONTROL?STC32G_ADC
FF17E9H   FF1898H   0000B0H   BYTE   UNIT     HCONST         ?HC?EBF_CONTROL
FF1899H   FF1927H   00008FH   BYTE   UNIT     HCONST         ?HC?MAIN
FF1928H   FF194AH   000023H   BYTE   UNIT     HCONST         ?HC?NTC_SAMPLING

* * * * * * * * *   R E M O V E D     S E G M E N T S   * * * * * * * *
   *DEL*:           000056H   BYTE   INSEG    CODE           ?PR?PWM_CONFIG?MAIN
   *DEL*:           000009H   BYTE   UNIT     EDATA          ?ED?PWM_CONFIG?MAIN
   *DEL*:           00008EH   BYTE   INSEG    CODE           ?PR?GPIO_INT_CONFIG?GPIO_INTERRUPT
   *DEL*:           000563H   BYTE   INSEG    CODE           ?PR?CONTROLBEEP?EBF_CONTROL
   *DEL*:           000256H   BYTE   INSEG    CODE           ?PR?GPIO_INILIZE?STC32G_GPIO
   *DEL*:           000016H   BYTE   INSEG    CODE           ?PR?PRINTSTRING1?STC32G_UART
   *DEL*:           000016H   BYTE   INSEG    CODE           ?PR?PRINTSTRING2?STC32G_UART
   *DEL*:           000016H   BYTE   INSEG    CODE           ?PR?PRINTSTRING3?STC32G_UART
   *DEL*:           000016H   BYTE   INSEG    CODE           ?PR?PRINTSTRING4?STC32G_UART
   *DEL*:           000010H   BYTE   INSEG    CODE           ?PR?TX2_WRITE2BUFF?STC32G_UART
   *DEL*:           000010H   BYTE   INSEG    CODE           ?PR?TX3_WRITE2BUFF?STC32G_UART
   *DEL*:           000010H   BYTE   INSEG    CODE           ?PR?TX4_WRITE2BUFF?STC32G_UART
   *DEL*:           00004CH   BYTE   INSEG    CODE           ?PR?NVIC_DMA_ADC_INIT?STC32G_NVIC
   *DEL*:           00004CH   BYTE   INSEG    CODE           ?PR?NVIC_DMA_M2M_INIT?STC32G_NVIC
   *DEL*:           00004CH   BYTE   INSEG    CODE           ?PR?NVIC_DMA_LCM_INIT?STC32G_NVIC
   *DEL*:           000048H   BYTE   INSEG    CODE           ?PR?NVIC_INT0_INIT?STC32G_NVIC
   *DEL*:           000048H   BYTE   INSEG    CODE           ?PR?NVIC_INT1_INIT?STC32G_NVIC
   *DEL*:           00001AH   BYTE   INSEG    CODE           ?PR?NVIC_INT2_INIT?STC32G_NVIC
   *DEL*:           00001AH   BYTE   INSEG    CODE           ?PR?NVIC_INT3_INIT?STC32G_NVIC
   *DEL*:           00004CH   BYTE   INSEG    CODE           ?PR?NVIC_DMA_SPI_INIT?STC32G_NVIC
   *DEL*:           00001AH   BYTE   INSEG    CODE           ?PR?NVIC_INT4_INIT?STC32G_NVIC
   *DEL*:           000048H   BYTE   INSEG    CODE           ?PR?NVIC_TIMER0_INIT?STC32G_NVIC
   *DEL*:           000048H   BYTE   INSEG    CODE           ?PR?NVIC_TIMER1_INIT?STC32G_NVIC
   *DEL*:           00001AH   BYTE   INSEG    CODE           ?PR?NVIC_TIMER2_INIT?STC32G_NVIC
   *DEL*:           00001AH   BYTE   INSEG    CODE           ?PR?NVIC_TIMER3_INIT?STC32G_NVIC
   *DEL*:           00001AH   BYTE   INSEG    CODE           ?PR?NVIC_TIMER4_INIT?STC32G_NVIC
   *DEL*:           000082H   BYTE   INSEG    CODE           ?PR?NVIC_I2C_INIT?STC32G_NVIC
   *DEL*:           00004CH   BYTE   INSEG    CODE           ?PR?NVIC_DMA_I2CR_INIT?STC32G_NVIC
   *DEL*:           00004CH   BYTE   INSEG    CODE           ?PR?NVIC_DMA_I2CT_INIT?STC32G_NVIC
   *DEL*:           00004CH   BYTE   INSEG    CODE           ?PR?NVIC_DMA_UART1_RX_INIT?STC32G_NVIC
   *DEL*:           00004CH   BYTE   INSEG    CODE           ?PR?NVIC_DMA_UART2_RX_INIT?STC32G_NVIC
   *DEL*:           00004CH   BYTE   INSEG    CODE           ?PR?NVIC_DMA_UART3_RX_INIT?STC32G_NVIC
   *DEL*:           00004CH   BYTE   INSEG    CODE           ?PR?NVIC_DMA_UART1_TX_INIT?STC32G_NVIC
   *DEL*:           00004CH   BYTE   INSEG    CODE           ?PR?NVIC_DMA_UART4_RX_INIT?STC32G_NVIC
   *DEL*:           00004CH   BYTE   INSEG    CODE           ?PR?NVIC_DMA_UART2_TX_INIT?STC32G_NVIC
L251 LINKER/LOCATER V4.66.93.0                                                        07/31/2024  16:59:11  PAGE 4


   *DEL*:           00004CH   BYTE   INSEG    CODE           ?PR?NVIC_DMA_UART3_TX_INIT?STC32G_NVIC
   *DEL*:           00008BH   BYTE   INSEG    CODE           ?PR?NVIC_CAN_INIT?STC32G_NVIC
   *DEL*:           00004CH   BYTE   INSEG    CODE           ?PR?NVIC_DMA_UART4_TX_INIT?STC32G_NVIC
   *DEL*:           00003CH   BYTE   INSEG    CODE           ?PR?NVIC_LCM_INIT?STC32G_NVIC
   *DEL*:           000053H   BYTE   INSEG    CODE           ?PR?NVIC_CMP_INIT?STC32G_NVIC
   *DEL*:           00004EH   BYTE   INSEG    CODE           ?PR?NVIC_LIN_INIT?STC32G_NVIC
   *DEL*:           000046H   BYTE   INSEG    CODE           ?PR?NVIC_RTC_INIT?STC32G_NVIC
   *DEL*:           00004EH   BYTE   INSEG    CODE           ?PR?NVIC_SPI_INIT?STC32G_NVIC
   *DEL*:           00004EH   BYTE   INSEG    CODE           ?PR?NVIC_UART2_INIT?STC32G_NVIC
   *DEL*:           00004EH   BYTE   INSEG    CODE           ?PR?NVIC_UART3_INIT?STC32G_NVIC
   *DEL*:           00004EH   BYTE   INSEG    CODE           ?PR?NVIC_UART4_INIT?STC32G_NVIC
   *DEL*:           000096H   BYTE   INSEG    CODE           ?PR?NVIC_PWM_INIT?STC32G_NVIC
   *DEL*:           00017BH   BYTE   INSEG    CODE           ?PR?UPDATEPWM?STC32G_PWM
   *DEL*:           000031H   BYTE   INSEG    CODE           ?PR?READPWMA?STC32G_PWM
   *DEL*:           000031H   BYTE   INSEG    CODE           ?PR?READPWMB?STC32G_PWM
   *DEL*:           00061AH   BYTE   INSEG    CODE           ?PR?PWM_CONFIGURATION?STC32G_PWM
   *DEL*:           000174H   BYTE   INSEG    CODE           ?PR?UPDATEHSPWM?STC32G_PWM
   *DEL*:           000025H   BYTE   INSEG    CODE           ?PR?WRITEPWMA?STC32G_PWM
   *DEL*:           000025H   BYTE   INSEG    CODE           ?PR?WRITEPWMB?STC32G_PWM
   *DEL*:           000424H   BYTE   INSEG    CODE           ?PR?HSPWM_CONFIGURATION?STC32G_PWM
   *DEL*:           000007H   BYTE   UNIT     EDATA          ?ED?HSPWM_CONFIGURATION?STC32G_PWM



OVERLAY MAP OF MODULE:   .\Objects\temperature-control-switch (main)


FUNCTION/MODULE                           BIT_GROUP   EDATA_GROUP
--> CALLED FUNCTION/MODULE               START  STOP  START  STOP
=================================================================
P0INT_ISR/gpio_interrupt                 ----- -----  ----- -----
  +--> delay_ms/STC32G_Delay

delay_ms/STC32G_Delay                    ----- -----  ----- -----

*** NEW ROOT ***************************

P1INT_ISR/gpio_interrupt                 ----- -----  ----- -----

*** NEW ROOT ***************************

P2INT_ISR/gpio_interrupt                 ----- -----  ----- -----
  +--> delay_ms/STC32G_Delay

*** NEW ROOT ***************************

P3INT_ISR/gpio_interrupt                 ----- -----  ----- -----

*** NEW ROOT ***************************

P4INT_ISR/gpio_interrupt                 ----- -----  ----- -----

*** NEW ROOT ***************************

P5INT_ISR/gpio_interrupt                 ----- -----  ----- -----

*** NEW ROOT ***************************

P6INT_ISR/gpio_interrupt                 ----- -----  ----- -----

*** NEW ROOT ***************************

P7INT_ISR/gpio_interrupt                 ----- -----  ----- -----

*** NEW ROOT ***************************
L251 LINKER/LOCATER V4.66.93.0                                                        07/31/2024  16:59:11  PAGE 5



UART1_ISR_Handler/STC32G_UART_Isr        ----- -----  ----- -----

*** NEW ROOT ***************************

UART2_ISR_Handler/STC32G_UART_Isr        ----- -----  ----- -----

*** NEW ROOT ***************************

UART3_ISR_Handler/STC32G_UART_Isr        ----- -----  ----- -----

*** NEW ROOT ***************************

UART4_ISR_Handler/STC32G_UART_Isr        ----- -----  ----- -----

*** NEW ROOT ***************************

?C_C51STARTUP                            ----- -----  ----- -----

*** NEW ROOT ***************************

?C_C51STARTUP?3                          ----- -----  ----- -----
  +--> main/main

main/main                                ----- -----  ----- -----
  +--> GPIO_config/main
  +--> UART_config/main
  +--> ADC_config/ntc_sampling
  +--> PRINTF/PRINTF
  +--> delay_ms/STC32G_Delay
  +--> temp_control_switch/main

GPIO_config/main                         ----- -----  ----- -----

UART_config/main                         ----- -----  0335H 033DH
  +--> UART_Configuration/STC32G_UART
  +--> NVIC_UART1_Init/STC32G_NVIC

UART_Configuration/STC32G_UART           ----- -----  ----- -----
  +--> ?C?ULIDIV/?C?ULDIV

?C?ULIDIV/?C?ULDIV                       ----- -----  ----- -----

NVIC_UART1_Init/STC32G_NVIC              ----- -----  ----- -----

ADC_config/ntc_sampling                  ----- -----  0335H 0339H
  +--> ADC_Inilize/STC32G_ADC
  +--> ADC_PowerControl/STC32G_ADC
  +--> NVIC_ADC_Init/STC32G_NVIC

ADC_Inilize/STC32G_ADC                   ----- -----  ----- -----

ADC_PowerControl/STC32G_ADC              ----- -----  ----- -----

NVIC_ADC_Init/STC32G_NVIC                ----- -----  ----- -----

PRINTF/PRINTF                            ----- -----  0335H 035CH
  +--> OUT/PRINTF

OUT/PRINTF                               ----- -----  ----- -----
  +--> PUTCH/PRINTF

PUTCH/PRINTF                             ----- -----  ----- -----
  +--> putchar/STC32G_UART
  +--> OUT/PRINTF
L251 LINKER/LOCATER V4.66.93.0                                                        07/31/2024  16:59:11  PAGE 6



putchar/STC32G_UART                      ----- -----  ----- -----
  +--> TX1_write2buff/STC32G_UART

TX1_write2buff/STC32G_UART               ----- -----  ----- -----

temp_control_switch/main                 ----- -----  ----- -----
  +--> NTC_ADC_convert/ntc_sampling
  +--> PRINTF/PRINTF

NTC_ADC_convert/ntc_sampling             ----- -----  ----- -----
  +--> Get_ADCResult/STC32G_ADC
  +--> BubbleSort/ntc_sampling
  +--> PRINTF/PRINTF
  +--> CalculationTemperature/ntc_sampling

Get_ADCResult/STC32G_ADC                 ----- -----  ----- -----

BubbleSort/ntc_sampling                  20H.3 20H.3  0335H 0337H
  +--> DataSwap/ntc_sampling

DataSwap/ntc_sampling                    ----- -----  ----- -----

CalculationTemperature/ntc_sampling      ----- -----  ----- -----
  +--> PRINTF/PRINTF
  +--> LOG?_/LOG?_

LOG?_/LOG?_                              ----- -----  ----- -----



PUBLIC SYMBOLS OF MODULE:  .\Objects\temperature-control-switch (main)


      VALUE       CLASS    TYPE      PUBLIC SYMBOL NAME
      =================================================
      000000FFH   NUMBER   ---       ?C?CODESEG
      00FF0395H   CODE     NEAR LAB  ?C?FCASTC
      00FF0390H   CODE     NEAR LAB  ?C?FCASTI
      00FF038BH   CODE     NEAR LAB  ?C?FCASTL
      00FF0972H   CODE     ---       ?C?FP2SERIES
      00FF016CH   CODE     ---       ?C?FPADD
      00FF0347H   CODE     ---       ?C?FPCMP
      00FF0345H   CODE     ---       ?C?FPCMP3
      00FF09ADH   CODE     ---       ?C?FPCONVERT
      00FF02C4H   CODE     ---       ?C?FPDIV
      00FF04E5H   CODE     ---       ?C?FPGETOPN2
      00FF0224H   CODE     ---       ?C?FPMUL
      00FF0522H   CODE     ---       ?C?FPNANRESULT
      00FF052AH   CODE     ---       ?C?FPOVERFLOW
      00FF04FEH   CODE     ---       ?C?FPRESULT
      00FF0514H   CODE     ---       ?C?FPRESULT2
      00FF0A65H   CODE     ---       ?C?FPROUND
      00FF097BH   CODE     ---       ?C?FPSERIES
      00FF0169H   CODE     ---       ?C?FPSUB
      00FF0527H   CODE     ---       ?C?FPUNDERFLOW
      00FF0AD8H   CODE     ---       ?C?FTNPWR
      00FF0563H   CODE     ---       ?C?PRNFMT
      00FF0000H   CODE     ---       ?C?STARTUP
      00FF0B11H   CODE     NEAR LAB  ?C?ULDIV
      00FF0B0FH   CODE     NEAR LAB  ?C?ULIDIV
      00000001H   NUMBER   ---       ?C?XDATASEG
      00FF0000H   CODE     ---       ?C_STARTUP
      0000035DH   EDATA    ---       ?printf?BYTE
      0000035DH   EDATA    ---       ADC_Buffer
L251 LINKER/LOCATER V4.66.93.0                                                        07/31/2024  16:59:11  PAGE 7


      00FF1776H   CODE     ---       ADC_config
*SFR* 000000BCH   DATA     BYTE      ADC_CONTR
*SFR* 000000BCH.5 DATA     BIT       ADC_FLAG
      00FF1541H   CODE     ---       ADC_Inilize
*SFR* 000000BCH.7 DATA     BIT       ADC_POWER
      00FF17DBH   CODE     ---       ADC_PowerControl
*SFR* 000000BDH   DATA     BYTE      ADC_RES
*SFR* 000000BEH   DATA     BYTE      ADC_RESL
*SFR* 000000BCH.6 DATA     BIT       ADC_START
*SFR* 000000DEH   DATA     BYTE      ADCCFG
*SFR* 000000EFH   DATA     BYTE      AUXINTIF
*SFR* 0000008EH   DATA     BYTE      AUXR
*SFR* 00000097H   DATA     BYTE      AUXR2
      00000020H.0 BIT      BIT       B_ULinRX1_Flag
      00000020H.1 BIT      BIT       B_ULinRX2_Flag
      00FF1082H   CODE     ---       BubbleSort
      00FF0096H   CODE     ---       CalculationTemperature
*SFR* 000000F1H.5 DATA     BIT       CAN2IE
*SFR* 000000F1H   DATA     BYTE      CANICR
*SFR* 000000F1H.1 DATA     BIT       CANIE
*SFR* 000000EAH   DATA     BYTE      CKCON
*SFR* 000000E6H   DATA     BYTE      CMPCR1
*SFR* 000000E7H   DATA     BYTE      CMPCR2
      00000021H   EDATA    ---       COM1
      00000026H   EDATA    ---       COM2
      0000002BH   EDATA    ---       COM3
      00000030H   EDATA    ---       COM4
*DEL*:00000000H   CODE     ---       controlbeep
      00FF17BAH   CODE     ---       DataSwap
      00FF0003H   CODE     ---       delay_ms
*SFR* 000000A8H.7 DATA     BIT       EA
*SFR* 000000A8H.5 DATA     BIT       EADC
*SFR* 000000BAH.7 DATA     BIT       EAXFR
*SFR* 000000A8H.4 DATA     BIT       ES
*SFR* 000000AFH.0 DATA     BIT       ES2
*SFR* 000000AFH.3 DATA     BIT       ES3
*SFR* 000000AFH.4 DATA     BIT       ES4
*SFR* 000000AFH.1 DATA     BIT       ESPI
*SFR* 000000A8H.1 DATA     BIT       ET0
*SFR* 000000A8H.3 DATA     BIT       ET1
*SFR* 000000AFH.2 DATA     BIT       ET2
*SFR* 000000AFH.5 DATA     BIT       ET3
*SFR* 000000AFH.6 DATA     BIT       ET4
*SFR* 000000A8H.0 DATA     BIT       EX0
*SFR* 000000A8H.2 DATA     BIT       EX1
*SFR* 0000008FH.4 DATA     BIT       EX2
*SFR* 0000008FH.5 DATA     BIT       EX3
*SFR* 0000008FH.6 DATA     BIT       EX4
*SFR* 000000A0H.6 DATA     BIT       five_f
*SFR* 000000A0H.4 DATA     BIT       four_f
*SFR* 000000B0H.3 DATA     BIT       four_key
      00FF14E2H   CODE     ---       Get_ADCResult
      00FF17A5H   CODE     ---       GPIO_config
*DEL*:00000000H   CODE     ---       GPIO_Inilize
*DEL*:00000000H   CODE     ---       GPIO_INT_Config
*SFR* 00000080H.2 DATA     BIT       high_f
*DEL*:00000000H   CODE     ---       HSPWM_Configuration
*SFR* 000000C7H   DATA     BYTE      IAP_CONTR
*SFR* 000000A8H   DATA     BYTE      IE
*SFR* 000000AFH   DATA     BYTE      IE2
*SFR* 0000008FH   DATA     BYTE      INTCLKO
*SFR* 000000B8H   DATA     BYTE      IP
*SFR* 000000B5H   DATA     BYTE      IP2
*SFR* 000000B6H   DATA     BYTE      IP2H
*SFR* 000000DFH   DATA     BYTE      IP3
L251 LINKER/LOCATER V4.66.93.0                                                        07/31/2024  16:59:11  PAGE 8


*SFR* 000000EEH   DATA     BYTE      IP3H
*SFR* 000000B7H   DATA     BYTE      IPH
*SFR* 0000009DH   DATA     BYTE      IRCBAND
*SFR* 000000F9H   DATA     BYTE      LINICR
*SFR* 000000F9H.1 DATA     BIT       LINIE
      00FF0420H   CODE     NEAR LAB  log?_
*SFR* 00000080H.3 DATA     BIT       low_f
      00FF1711H   CODE     ---       main
*SFR* 000000B0H.2 DATA     BIT       mode_key
*SFR* 000000E6H.4 DATA     BIT       NIE
      00FF1299H   CODE     ---       NTC_ADC_convert
      0000038EH   EDATA    FLOAT     ntc_wendu
      00FF1681H   CODE     ---       NVIC_ADC_Init
*DEL*:00000000H   CODE     ---       NVIC_CAN_Init
*DEL*:00000000H   CODE     ---       NVIC_CMP_Init
*DEL*:00000000H   CODE     ---       NVIC_DMA_ADC_Init
*DEL*:00000000H   CODE     ---       NVIC_DMA_I2CR_Init
*DEL*:00000000H   CODE     ---       NVIC_DMA_I2CT_Init
*DEL*:00000000H   CODE     ---       NVIC_DMA_LCM_Init
*DEL*:00000000H   CODE     ---       NVIC_DMA_M2M_Init
*DEL*:00000000H   CODE     ---       NVIC_DMA_SPI_Init
*DEL*:00000000H   CODE     ---       NVIC_DMA_UART1_Rx_Init
*DEL*:00000000H   CODE     ---       NVIC_DMA_UART1_Tx_Init
*DEL*:00000000H   CODE     ---       NVIC_DMA_UART2_Rx_Init
*DEL*:00000000H   CODE     ---       NVIC_DMA_UART2_Tx_Init
*DEL*:00000000H   CODE     ---       NVIC_DMA_UART3_Rx_Init
*DEL*:00000000H   CODE     ---       NVIC_DMA_UART3_Tx_Init
*DEL*:00000000H   CODE     ---       NVIC_DMA_UART4_Rx_Init
*DEL*:00000000H   CODE     ---       NVIC_DMA_UART4_Tx_Init
*DEL*:00000000H   CODE     ---       NVIC_I2C_Init
*DEL*:00000000H   CODE     ---       NVIC_INT0_Init
*DEL*:00000000H   CODE     ---       NVIC_INT1_Init
*DEL*:00000000H   CODE     ---       NVIC_INT2_Init
*DEL*:00000000H   CODE     ---       NVIC_INT3_Init
*DEL*:00000000H   CODE     ---       NVIC_INT4_Init
*DEL*:00000000H   CODE     ---       NVIC_LCM_Init
*DEL*:00000000H   CODE     ---       NVIC_LIN_Init
*DEL*:00000000H   CODE     ---       NVIC_PWM_Init
*DEL*:00000000H   CODE     ---       NVIC_RTC_Init
*DEL*:00000000H   CODE     ---       NVIC_SPI_Init
*DEL*:00000000H   CODE     ---       NVIC_Timer0_Init
*DEL*:00000000H   CODE     ---       NVIC_Timer1_Init
*DEL*:00000000H   CODE     ---       NVIC_Timer2_Init
*DEL*:00000000H   CODE     ---       NVIC_Timer3_Init
*DEL*:00000000H   CODE     ---       NVIC_Timer4_Init
      00FF16C9H   CODE     ---       NVIC_UART1_Init
*DEL*:00000000H   CODE     ---       NVIC_UART2_Init
*DEL*:00000000H   CODE     ---       NVIC_UART3_Init
*DEL*:00000000H   CODE     ---       NVIC_UART4_Init
*SFR* 000000A0H.5 DATA     BIT       one_f
*SFR* 000000B0H.6 DATA     BIT       one_key
*SFR* 00000080H   DATA     BYTE      P0
*SFR* 00000080H.0 DATA     BIT       P00
*SFR* 00000080H.1 DATA     BIT       P01
*SFR* 00000080H.2 DATA     BIT       P02
*SFR* 00000080H.3 DATA     BIT       P03
*SFR* 00000080H.4 DATA     BIT       P04
*SFR* 00000080H.5 DATA     BIT       P05
*SFR* 00000080H.6 DATA     BIT       P06
*SFR* 00000080H.7 DATA     BIT       P07
      00FF10F3H   CODE     ---       P0INT_ISR
*SFR* 00000094H   DATA     BYTE      P0M0
*SFR* 00000093H   DATA     BYTE      P0M1
*SFR* 00000090H   DATA     BYTE      P1
*SFR* 00000090H.4 DATA     BIT       P14
L251 LINKER/LOCATER V4.66.93.0                                                        07/31/2024  16:59:11  PAGE 9


      00FF12FDH   CODE     ---       P1INT_ISR
*SFR* 00000092H   DATA     BYTE      P1M0
*SFR* 00000091H   DATA     BYTE      P1M1
*SFR* 000000A0H   DATA     BYTE      P2
*SFR* 000000A0H.0 DATA     BIT       P20
*SFR* 000000A0H.1 DATA     BIT       P21
*SFR* 000000A0H.2 DATA     BIT       P22
*SFR* 000000A0H.3 DATA     BIT       P23
*SFR* 000000A0H.4 DATA     BIT       P24
*SFR* 000000A0H.5 DATA     BIT       P25
*SFR* 000000A0H.6 DATA     BIT       P26
*SFR* 000000A0H.7 DATA     BIT       P27
      00FF115FH   CODE     ---       P2INT_ISR
*SFR* 00000096H   DATA     BYTE      P2M0
*SFR* 00000095H   DATA     BYTE      P2M1
*SFR* 000000B0H   DATA     BYTE      P3
      00FF135EH   CODE     ---       P3INT_ISR
*SFR* 000000B2H   DATA     BYTE      P3M0
*SFR* 000000B1H   DATA     BYTE      P3M1
*SFR* 000000C0H   DATA     BYTE      P4
*SFR* 000000C0H.0 DATA     BIT       P40
*SFR* 000000C0H.1 DATA     BIT       P41
*SFR* 000000C0H.2 DATA     BIT       P42
*SFR* 000000C0H.3 DATA     BIT       P43
*SFR* 000000C0H.4 DATA     BIT       P44
*SFR* 000000C0H.5 DATA     BIT       P45
*SFR* 000000C0H.6 DATA     BIT       P46
*SFR* 000000C0H.7 DATA     BIT       P47
      00FF13BFH   CODE     ---       P4INT_ISR
*SFR* 000000B4H   DATA     BYTE      P4M0
*SFR* 000000B3H   DATA     BYTE      P4M1
*SFR* 000000C8H   DATA     BYTE      P5
      00FF159EH   CODE     ---       P5INT_ISR
*SFR* 000000CAH   DATA     BYTE      P5M0
*SFR* 000000C9H   DATA     BYTE      P5M1
*SFR* 000000E8H   DATA     BYTE      P6
*SFR* 000000E8H.0 DATA     BIT       P60
*SFR* 000000E8H.1 DATA     BIT       P61
*SFR* 000000E8H.2 DATA     BIT       P62
*SFR* 000000E8H.3 DATA     BIT       P63
*SFR* 000000E8H.4 DATA     BIT       P64
*SFR* 000000E8H.5 DATA     BIT       P65
*SFR* 000000E8H.6 DATA     BIT       P66
*SFR* 000000E8H.7 DATA     BIT       P67
      00FF1420H   CODE     ---       P6INT_ISR
*SFR* 000000CCH   DATA     BYTE      P6M0
*SFR* 000000CBH   DATA     BYTE      P6M1
*SFR* 000000F8H   DATA     BYTE      P7
*SFR* 000000F8H.0 DATA     BIT       P70
*SFR* 000000F8H.1 DATA     BIT       P71
*SFR* 000000F8H.2 DATA     BIT       P72
*SFR* 000000F8H.3 DATA     BIT       P73
*SFR* 000000F8H.4 DATA     BIT       P74
*SFR* 000000F8H.5 DATA     BIT       P75
*SFR* 000000F8H.6 DATA     BIT       P76
*SFR* 000000F8H.7 DATA     BIT       P77
      00FF1481H   CODE     ---       P7INT_ISR
*SFR* 000000E2H   DATA     BYTE      P7M0
*SFR* 000000E1H   DATA     BYTE      P7M1
*SFR* 000000A2H   DATA     BYTE      P_SW1
*SFR* 000000BAH   DATA     BYTE      P_SW2
*SFR* 000000BBH   DATA     BYTE      P_SW3
*SFR* 000000B8H.5 DATA     BIT       PADC
*SFR* 000000B7H.5 DATA     BIT       PADCH
*SFR* 000000F1H.7 DATA     BIT       PCAN2H
L251 LINKER/LOCATER V4.66.93.0                                                        07/31/2024  16:59:11  PAGE 10


*SFR* 000000F1H.4 DATA     BIT       PCAN2L
*SFR* 000000F1H.3 DATA     BIT       PCANH
*SFR* 000000F1H.0 DATA     BIT       PCANL
*SFR* 000000B5H.5 DATA     BIT       PCMP
*SFR* 000000B6H.5 DATA     BIT       PCMPH
*SFR* 00000087H   DATA     BYTE      PCON
*SFR* 000000E6H.5 DATA     BIT       PIE
*SFR* 000000F9H.3 DATA     BIT       PLINH
*SFR* 000000F9H.0 DATA     BIT       PLINL
*SFR* 000000B5H.2 DATA     BIT       PPWMA
*SFR* 000000B6H.2 DATA     BIT       PPWMAH
*SFR* 000000B5H.3 DATA     BIT       PPWMB
*SFR* 000000B6H.3 DATA     BIT       PPWMBH
      00FF03C8H   CODE     NEAR LAB  printf
*DEL*:00000000H   CODE     ---       PrintString1
*DEL*:00000000H   CODE     ---       PrintString2
*DEL*:00000000H   CODE     ---       PrintString3
*DEL*:00000000H   CODE     ---       PrintString4
*SFR* 000000DFH.2 DATA     BIT       PRTC
*SFR* 000000EEH.2 DATA     BIT       PRTCH
*SFR* 000000B8H.4 DATA     BIT       PS
*SFR* 000000B5H.0 DATA     BIT       PS2
*SFR* 000000B6H.0 DATA     BIT       PS2H
*SFR* 000000DFH.0 DATA     BIT       PS3
*SFR* 000000EEH.0 DATA     BIT       PS3H
*SFR* 000000DFH.1 DATA     BIT       PS4
*SFR* 000000EEH.1 DATA     BIT       PS4H
*SFR* 000000B7H.4 DATA     BIT       PSH
*SFR* 000000B5H.1 DATA     BIT       PSPI
*SFR* 000000B6H.1 DATA     BIT       PSPIH
*SFR* 000000D0H   DATA     BYTE      PSW
*SFR* 000000B8H.1 DATA     BIT       PT0
*SFR* 000000B7H.1 DATA     BIT       PT0H
*SFR* 000000B8H.3 DATA     BIT       PT1
*SFR* 000000B7H.3 DATA     BIT       PT1H
      00FF007EH   CODE     ---       putchar
      00000020H.2 BIT      BIT       PWM1_Flag
*DEL*:00000000H   CODE     ---       PWM_config
*DEL*:00000000H   CODE     ---       PWM_Configuration
      0000037EH   EDATA    ---       PWMA_Duty
*SFR* 000000B8H.0 DATA     BIT       PX0
*SFR* 000000B7H.0 DATA     BIT       PX0H
*SFR* 000000B8H.2 DATA     BIT       PX1
*SFR* 000000B7H.2 DATA     BIT       PX1H
*DEL*:00000000H   CODE     ---       ReadPWMA
*DEL*:00000000H   CODE     ---       ReadPWMB
*SFR* 00000098H.4 DATA     BIT       REN
*SFR* 000000DEH.5 DATA     BIT       RESFMT
*SFR* 00000098H.0 DATA     BIT       RI
*SFR* 000000FFH   DATA     BYTE      RSTCFG
      00000035H   EDATA    ---       RX1_Buffer
      000000B5H   EDATA    ---       RX2_Buffer
      00000135H   EDATA    ---       RX3_Buffer
      000001F5H   EDATA    ---       RX4_Buffer
*SFR* 0000008EH.0 DATA     BIT       S1BRT
*SFR* 0000008EH.5 DATA     BIT       S1M0x6
*SFR* 0000009BH   DATA     BYTE      S2BUF
*SFR* 0000009AH   DATA     BYTE      S2CON
*SFR* 0000009AH.4 DATA     BIT       S2REN
*SFR* 0000009AH.0 DATA     BIT       S2RI
*SFR* 0000009AH.1 DATA     BIT       S2TI
*SFR* 000000ADH   DATA     BYTE      S3BUF
*SFR* 000000ACH   DATA     BYTE      S3CON
*SFR* 000000ACH.4 DATA     BIT       S3REN
*SFR* 000000ACH.0 DATA     BIT       S3RI
L251 LINKER/LOCATER V4.66.93.0                                                        07/31/2024  16:59:11  PAGE 11


*SFR* 000000ACH.7 DATA     BIT       S3SM0
*SFR* 000000ACH.6 DATA     BIT       S3ST3
*SFR* 000000ACH.1 DATA     BIT       S3TI
*SFR* 000000FEH   DATA     BYTE      S4BUF
*SFR* 000000FDH   DATA     BYTE      S4CON
*SFR* 000000FDH.4 DATA     BIT       S4REN
*SFR* 000000FDH.0 DATA     BIT       S4RI
*SFR* 000000FDH.7 DATA     BIT       S4SM0
*SFR* 000000FDH.6 DATA     BIT       S4ST4
*SFR* 000000FDH.1 DATA     BIT       S4TI
*SFR* 00000099H   DATA     BYTE      SBUF
*SFR* 00000098H   DATA     BYTE      SCON
      00000392H   EDATA    FLOAT     set_wendu
*SFR* 00000080H.0 DATA     BIT       six_f
*SFR* 00000087H.7 DATA     BIT       SMOD
      00FF0046H   CODE     ---       Sound_Fre
*SFR* 000000CEH   DATA     BYTE      SPCTL
*SFR* 000000CDH   DATA     BYTE      SPSTAT
      0000037DH   EDATA    BYTE      switch_data
*SFR* 00000089H.6 DATA     BIT       T1_CT
*SFR* 0000008EH.6 DATA     BIT       T1x12
*SFR* 0000008EH.3 DATA     BIT       T2_CT
*SFR* 000000D6H   DATA     BYTE      T2H
*SFR* 000000D7H   DATA     BYTE      T2L
*SFR* 0000008EH.4 DATA     BIT       T2R
*SFR* 0000008EH.2 DATA     BIT       T2x12
*SFR* 000000DDH.2 DATA     BIT       T3_CT
*SFR* 000000D4H   DATA     BYTE      T3H
*SFR* 000000D5H   DATA     BYTE      T3L
*SFR* 000000DDH.3 DATA     BIT       T3R
*SFR* 000000DDH.1 DATA     BIT       T3x12
*SFR* 000000DDH.6 DATA     BIT       T4_CT
*SFR* 000000D2H   DATA     BYTE      T4H
*SFR* 000000D3H   DATA     BYTE      T4L
*SFR* 000000DDH.7 DATA     BIT       T4R
*SFR* 000000DDH   DATA     BYTE      T4T3M
*SFR* 000000DDH.5 DATA     BIT       T4x12
*SFR* 00000088H   DATA     BYTE      TCON
      00FF0EA2H   CODE     ---       temp_control_switch
*SFR* 0000008DH   DATA     BYTE      TH1
*SFR* 00000080H.1 DATA     BIT       three_f
*SFR* 000000B0H.4 DATA     BIT       three_key
*SFR* 00000098H.1 DATA     BIT       TI
*SFR* 0000008BH   DATA     BYTE      TL1
*SFR* 00000089H   DATA     BYTE      TMOD
*SFR* 00000088H.6 DATA     BIT       TR1
*SFR* 000000A0H.7 DATA     BIT       two_f
*SFR* 000000B0H.5 DATA     BIT       two_key
      00000175H   EDATA    ---       TX1_Buffer
      00FF17CBH   CODE     ---       TX1_write2buff
      00000235H   EDATA    ---       TX2_Buffer
*DEL*:00000000H   CODE     ---       TX2_write2buff
      000002B5H   EDATA    ---       TX3_Buffer
*DEL*:00000000H   CODE     ---       TX3_write2buff
      000002F5H   EDATA    ---       TX4_Buffer
*DEL*:00000000H   CODE     ---       TX4_write2buff
      00FF1234H   CODE     ---       UART1_ISR_Handler
      00FF11CBH   CODE     ---       UART2_ISR_Handler
      00FF15F1H   CODE     ---       UART3_ISR_Handler
      00FF1639H   CODE     ---       UART4_ISR_Handler
      00FF1747H   CODE     ---       UART_config
      00FF0B62H   CODE     ---       UART_Configuration
*DEL*:00000000H   CODE     ---       UpdateHSPwm
*DEL*:00000000H   CODE     ---       UpdatePwm
*SFR* 000000F4H   DATA     BYTE      USBCON
L251 LINKER/LOCATER V4.66.93.0                                                        07/31/2024  16:59:11  PAGE 12


*SFR* 000000C1H   DATA     BYTE      WDT_CONTR
*DEL*:00000000H   CODE     ---       WritePWMA
*DEL*:00000000H   CODE     ---       WritePWMB
*SFR* 000000E9H   DATA     BYTE      WTST



SYMBOL TABLE OF MODULE:  .\Objects\temperature-control-switch (main)

      VALUE       REP       CLASS    TYPE      SYMBOL NAME
      ====================================================
      ---         MODULE    ---      ---       main
      00FF17A5H   PUBLIC    CODE     ---       GPIO_config
      00FF0EA2H   PUBLIC    CODE     ---       temp_control_switch
      00FF1747H   PUBLIC    CODE     ---       UART_config
      00FF1711H   PUBLIC    CODE     ---       main
      00000020H.2 PUBLIC    BIT      BIT       PWM1_Flag
      0000037DH   PUBLIC    EDATA    BYTE      switch_data
      0000037EH   PUBLIC    EDATA    ---       PWMA_Duty
      0000038EH   PUBLIC    EDATA    FLOAT     ntc_wendu
      00000392H   PUBLIC    EDATA    FLOAT     set_wendu
      000000D0H   SFRSYM    DATA     BYTE      PSW
      000000BAH.7 SFRSYM    DATA     BIT       EAXFR
      0000009DH   SFRSYM    DATA     BYTE      IRCBAND
      00000097H   SFRSYM    DATA     BYTE      AUXR2
      000000EAH   SFRSYM    DATA     BYTE      CKCON
      000000B0H.6 SFRSYM    DATA     BIT       one_key
      000000EFH   SFRSYM    DATA     BYTE      AUXINTIF
      000000B0H.3 SFRSYM    DATA     BIT       four_key
      000000FDH   SFRSYM    DATA     BYTE      S4CON
      000000ACH   SFRSYM    DATA     BYTE      S3CON
      0000009AH   SFRSYM    DATA     BYTE      S2CON
      000000B7H   SFRSYM    DATA     BYTE      IPH
      000000CDH   SFRSYM    DATA     BYTE      SPSTAT
      000000DDH   SFRSYM    DATA     BYTE      T4T3M
      000000C1H   SFRSYM    DATA     BYTE      WDT_CONTR
      000000E9H   SFRSYM    DATA     BYTE      WTST
      000000B0H.2 SFRSYM    DATA     BIT       mode_key
      000000DFH   SFRSYM    DATA     BYTE      IP3
      000000F4H   SFRSYM    DATA     BYTE      USBCON
      000000B5H   SFRSYM    DATA     BYTE      IP2
      000000FFH   SFRSYM    DATA     BYTE      RSTCFG
      000000B0H.4 SFRSYM    DATA     BIT       three_key
      000000C7H   SFRSYM    DATA     BYTE      IAP_CONTR
      000000F9H   SFRSYM    DATA     BYTE      LINICR
      0000008EH   SFRSYM    DATA     BYTE      AUXR
      000000AFH   SFRSYM    DATA     BYTE      IE2
      00000088H   SFRSYM    DATA     BYTE      TCON
      00000089H   SFRSYM    DATA     BYTE      TMOD
      00000090H.4 SFRSYM    DATA     BIT       P14
      00000098H   SFRSYM    DATA     BYTE      SCON
      000000F1H   SFRSYM    DATA     BYTE      CANICR
      00000087H   SFRSYM    DATA     BYTE      PCON
      000000BCH   SFRSYM    DATA     BYTE      ADC_CONTR
      000000E7H   SFRSYM    DATA     BYTE      CMPCR2
      000000E6H   SFRSYM    DATA     BYTE      CMPCR1
      000000DEH   SFRSYM    DATA     BYTE      ADCCFG
      000000B8H   SFRSYM    DATA     BYTE      IP
      0000008FH   SFRSYM    DATA     BYTE      INTCLKO
      000000EEH   SFRSYM    DATA     BYTE      IP3H
      000000B6H   SFRSYM    DATA     BYTE      IP2H
      000000A8H   SFRSYM    DATA     BYTE      IE
      000000BBH   SFRSYM    DATA     BYTE      P_SW3
      000000BAH   SFRSYM    DATA     BYTE      P_SW2
      000000A2H   SFRSYM    DATA     BYTE      P_SW1
L251 LINKER/LOCATER V4.66.93.0                                                        07/31/2024  16:59:11  PAGE 13


      000000CEH   SFRSYM    DATA     BYTE      SPCTL
      000000F8H   SFRSYM    DATA     BYTE      P7
      000000B0H.5 SFRSYM    DATA     BIT       two_key
      000000A8H.7 SFRSYM    DATA     BIT       EA
      000000E8H   SFRSYM    DATA     BYTE      P6
      000000C8H   SFRSYM    DATA     BYTE      P5
      000000C0H   SFRSYM    DATA     BYTE      P4
      000000B0H   SFRSYM    DATA     BYTE      P3
      000000A0H   SFRSYM    DATA     BYTE      P2
      000000B1H   SFRSYM    DATA     BYTE      P3M1
      00000090H   SFRSYM    DATA     BYTE      P1
      000000B2H   SFRSYM    DATA     BYTE      P3M0
      00000080H   SFRSYM    DATA     BYTE      P0
      00000091H   SFRSYM    DATA     BYTE      P1M1
      00000092H   SFRSYM    DATA     BYTE      P1M0

      00FF1711H   BLOCK     CODE     ---       LVL=0
      00FF1711H   LINE      CODE     ---       #46
      00FF1711H   LINE      CODE     ---       #52
      00FF1714H   LINE      CODE     ---       #53
      00FF1717H   LINE      CODE     ---       #54
      00FF171AH   LINE      CODE     ---       #56
      00FF171DH   LINE      CODE     ---       #57
      00FF1720H   LINE      CODE     ---       #58
      00FF1723H   LINE      CODE     ---       #59
      00FF1725H   LINE      CODE     ---       #61
      00FF172BH   LINE      CODE     ---       #62
      00FF1730H   LINE      CODE     ---       #63
      00FF173BH   LINE      CODE     ---       #65
      00FF173BH   LINE      CODE     ---       #67
      00FF1742H   LINE      CODE     ---       #69
      00FF1745H   LINE      CODE     ---       #70
      ---         BLOCKEND  ---      ---       LVL=0

      00FF17A5H   BLOCK     CODE     ---       LVL=0
      00FF17A5H   LINE      CODE     ---       #83
      00FF17A5H   LINE      CODE     ---       #85
      00FF17ABH   LINE      CODE     ---       #86
      00FF17B1H   LINE      CODE     ---       #87
      00FF17B7H   LINE      CODE     ---       #88
      00FF17B9H   LINE      CODE     ---       #89
      ---         BLOCKEND  ---      ---       LVL=0

      00FF1747H   BLOCK     CODE     ---       LVL=0
      00000335H   SYMBOL    EDATA    ---       COMx_InitStructure
      00FF1747H   LINE      CODE     ---       #92
      00FF1747H   LINE      CODE     ---       #93
      00FF1747H   LINE      CODE     ---       #95
      00FF174DH   LINE      CODE     ---       #96
      00FF1753H   LINE      CODE     ---       #97
      00FF175FH   LINE      CODE     ---       #98
      00FF1763H   LINE      CODE     ---       #99
      00FF176AH   LINE      CODE     ---       #100
      00FF1772H   LINE      CODE     ---       #102
      00FF1775H   LINE      CODE     ---       #103
      ---         BLOCKEND  ---      ---       LVL=0
      WR6         REGSYM    ---      WORD      Fre

      00FF0EA2H   BLOCK     CODE     ---       LVL=0
      00FF0EA2H   LINE      CODE     ---       #130
      00FF0EA4H   LINE      CODE     ---       #132
      00FF0EADH   LINE      CODE     ---       #133
      00FF0EC0H   LINE      CODE     ---       #134
      00FF0ECDH   LINE      CODE     ---       #136
      00FF0ED8H   LINE      CODE     ---       #137
L251 LINKER/LOCATER V4.66.93.0                                                        07/31/2024  16:59:11  PAGE 14


      00FF0EDAH   LINE      CODE     ---       #138
      00FF0EDDH   LINE      CODE     ---       #139
      00FF0EDDH   LINE      CODE     ---       #150
      00FF0EEBH   LINE      CODE     ---       #151
      00FF0EF5H   LINE      CODE     ---       #152
      00FF0F03H   LINE      CODE     ---       #153
      00FF0F0DH   LINE      CODE     ---       #154
      00FF0F1BH   LINE      CODE     ---       #155
      00FF0F25H   LINE      CODE     ---       #156
      00FF0F33H   LINE      CODE     ---       #157
      00FF0F3DH   LINE      CODE     ---       #158
      00FF0F52H   LINE      CODE     ---       #160
      00FF0F5FH   LINE      CODE     ---       #161
      00FF0F6DH   LINE      CODE     ---       #162
      00FF0F7BH   LINE      CODE     ---       #163
      00FF0F85H   LINE      CODE     ---       #164
      00FF0F93H   LINE      CODE     ---       #165
      00FF0FA1H   LINE      CODE     ---       #166
      00FF0FAEH   LINE      CODE     ---       #167
      00FF0FBBH   LINE      CODE     ---       #168
      00FF0FC8H   LINE      CODE     ---       #169
      00FF0FD5H   LINE      CODE     ---       #170
      00FF0FE2H   LINE      CODE     ---       #171
      00FF0FEFH   LINE      CODE     ---       #172
      00FF0FFCH   LINE      CODE     ---       #173
      00FF1009H   LINE      CODE     ---       #174
      00FF1016H   LINE      CODE     ---       #175
      00FF1025H   LINE      CODE     ---       #176
      00FF1038H   LINE      CODE     ---       #178
      00FF103EH   LINE      CODE     ---       #180
      00FF1049H   LINE      CODE     ---       #181
      00FF1058H   LINE      CODE     ---       #182
      00FF105AH   LINE      CODE     ---       #183
      00FF105CH   LINE      CODE     ---       #184
      00FF1063H   LINE      CODE     ---       #186
      00FF106EH   LINE      CODE     ---       #187
      00FF107DH   LINE      CODE     ---       #188
      00FF107FH   LINE      CODE     ---       #189
      ---         BLOCKEND  ---      ---       LVL=0

      ---         MODULE    ---      ---       gpio_interrupt
      00FF10F3H   PUBLIC    CODE     ---       P0INT_ISR
      00FF12FDH   PUBLIC    CODE     ---       P1INT_ISR
      00FF115FH   PUBLIC    CODE     ---       P2INT_ISR
      00FF135EH   PUBLIC    CODE     ---       P3INT_ISR
      00FF13BFH   PUBLIC    CODE     ---       P4INT_ISR
      00FF159EH   PUBLIC    CODE     ---       P5INT_ISR
      00FF1420H   PUBLIC    CODE     ---       P6INT_ISR
      00FF1481H   PUBLIC    CODE     ---       P7INT_ISR
      000000D0H   SFRSYM    DATA     BYTE      PSW
      0000009DH   SFRSYM    DATA     BYTE      IRCBAND
      00000097H   SFRSYM    DATA     BYTE      AUXR2
      000000A0H.6 SFRSYM    DATA     BIT       five_f
      000000EFH   SFRSYM    DATA     BYTE      AUXINTIF
      000000FDH   SFRSYM    DATA     BYTE      S4CON
      00000080H.2 SFRSYM    DATA     BIT       high_f
      000000ACH   SFRSYM    DATA     BYTE      S3CON
      0000009AH   SFRSYM    DATA     BYTE      S2CON
      000000B7H   SFRSYM    DATA     BYTE      IPH
      000000CDH   SFRSYM    DATA     BYTE      SPSTAT
      00000080H.1 SFRSYM    DATA     BIT       three_f
      000000DDH   SFRSYM    DATA     BYTE      T4T3M
      000000C1H   SFRSYM    DATA     BYTE      WDT_CONTR
      000000DFH   SFRSYM    DATA     BYTE      IP3
      000000F4H   SFRSYM    DATA     BYTE      USBCON
L251 LINKER/LOCATER V4.66.93.0                                                        07/31/2024  16:59:11  PAGE 15


      000000B5H   SFRSYM    DATA     BYTE      IP2
      000000FFH   SFRSYM    DATA     BYTE      RSTCFG
      000000C7H   SFRSYM    DATA     BYTE      IAP_CONTR
      000000F9H   SFRSYM    DATA     BYTE      LINICR
      0000008EH   SFRSYM    DATA     BYTE      AUXR
      000000AFH   SFRSYM    DATA     BYTE      IE2
      000000F8H.7 SFRSYM    DATA     BIT       P77
      000000E8H.7 SFRSYM    DATA     BIT       P67
      000000F8H.6 SFRSYM    DATA     BIT       P76
      000000E8H.6 SFRSYM    DATA     BIT       P66
      000000F8H.5 SFRSYM    DATA     BIT       P75
      000000C0H.7 SFRSYM    DATA     BIT       P47
      000000E8H.5 SFRSYM    DATA     BIT       P65
      000000F8H.4 SFRSYM    DATA     BIT       P74
      000000C0H.6 SFRSYM    DATA     BIT       P46
      000000E8H.4 SFRSYM    DATA     BIT       P64
      000000F8H.3 SFRSYM    DATA     BIT       P73
      000000A0H.7 SFRSYM    DATA     BIT       P27
      000000C0H.5 SFRSYM    DATA     BIT       P45
      000000E8H.3 SFRSYM    DATA     BIT       P63
      000000F8H.2 SFRSYM    DATA     BIT       P72
      000000A0H.6 SFRSYM    DATA     BIT       P26
      000000C0H.4 SFRSYM    DATA     BIT       P44
      000000E8H.2 SFRSYM    DATA     BIT       P62
      000000F8H.1 SFRSYM    DATA     BIT       P71
      00000080H.7 SFRSYM    DATA     BIT       P07
      000000A0H.5 SFRSYM    DATA     BIT       P25
      000000C0H.3 SFRSYM    DATA     BIT       P43
      000000E8H.1 SFRSYM    DATA     BIT       P61
      000000F8H.0 SFRSYM    DATA     BIT       P70
      00000080H.6 SFRSYM    DATA     BIT       P06
      000000A0H.4 SFRSYM    DATA     BIT       P24
      000000C0H.2 SFRSYM    DATA     BIT       P42
      000000E8H.0 SFRSYM    DATA     BIT       P60
      00000080H.5 SFRSYM    DATA     BIT       P05
      00000088H   SFRSYM    DATA     BYTE      TCON
      00000089H   SFRSYM    DATA     BYTE      TMOD
      000000A0H.3 SFRSYM    DATA     BIT       P23
      000000C0H.1 SFRSYM    DATA     BIT       P41
      00000080H.4 SFRSYM    DATA     BIT       P04
      00000098H   SFRSYM    DATA     BYTE      SCON
      000000A0H.2 SFRSYM    DATA     BIT       P22
      000000C0H.0 SFRSYM    DATA     BIT       P40
      00000080H.3 SFRSYM    DATA     BIT       P03
      000000A0H.1 SFRSYM    DATA     BIT       P21
      00000080H.2 SFRSYM    DATA     BIT       P02
      000000A0H.0 SFRSYM    DATA     BIT       P20
      000000F1H   SFRSYM    DATA     BYTE      CANICR
      00000080H.1 SFRSYM    DATA     BIT       P01
      00000087H   SFRSYM    DATA     BYTE      PCON
      000000BCH   SFRSYM    DATA     BYTE      ADC_CONTR
      00000080H.0 SFRSYM    DATA     BIT       P00
      000000E7H   SFRSYM    DATA     BYTE      CMPCR2
      000000E6H   SFRSYM    DATA     BYTE      CMPCR1
      000000A0H.7 SFRSYM    DATA     BIT       two_f
      00000080H.0 SFRSYM    DATA     BIT       six_f
      000000DEH   SFRSYM    DATA     BYTE      ADCCFG
      00000080H.3 SFRSYM    DATA     BIT       low_f
      000000B8H   SFRSYM    DATA     BYTE      IP
      0000008FH   SFRSYM    DATA     BYTE      INTCLKO
      000000EEH   SFRSYM    DATA     BYTE      IP3H
      000000B6H   SFRSYM    DATA     BYTE      IP2H
      000000A8H   SFRSYM    DATA     BYTE      IE
      000000BBH   SFRSYM    DATA     BYTE      P_SW3
      000000BAH   SFRSYM    DATA     BYTE      P_SW2
L251 LINKER/LOCATER V4.66.93.0                                                        07/31/2024  16:59:11  PAGE 16


      000000A2H   SFRSYM    DATA     BYTE      P_SW1
      000000A0H.5 SFRSYM    DATA     BIT       one_f
      000000CEH   SFRSYM    DATA     BYTE      SPCTL
      000000F8H   SFRSYM    DATA     BYTE      P7
      000000A8H.7 SFRSYM    DATA     BIT       EA
      000000E8H   SFRSYM    DATA     BYTE      P6
      000000C8H   SFRSYM    DATA     BYTE      P5
      000000A0H.4 SFRSYM    DATA     BIT       four_f
      000000C0H   SFRSYM    DATA     BYTE      P4
      000000B0H   SFRSYM    DATA     BYTE      P3
      000000A0H   SFRSYM    DATA     BYTE      P2
      00000090H   SFRSYM    DATA     BYTE      P1
      00000080H   SFRSYM    DATA     BYTE      P0
      R1          REGSYM    ---      BYTE      gpio
      R0          REGSYM    ---      BYTE      mode
      R10         REGSYM    ---      BYTE      pin
      REG=1       REGSYM    ---      ---       pt
      R9          REGSYM    ---      BYTE      j

      00FF10F3H   BLOCK     CODE     ---       LVL=0
      00FF1109H   BLOCK     CODE     NEAR LAB  LVL=1
      R10         REGSYM    ---      BYTE      i
      ---         BLOCKEND  ---      ---       LVL=1
      00FF10F3H   LINE      CODE     ---       #97
      00FF1109H   LINE      CODE     ---       #98
      00FF1109H   LINE      CODE     ---       #100
      00FF1114H   LINE      CODE     ---       #101
      00FF1121H   LINE      CODE     ---       #103
      00FF1126H   LINE      CODE     ---       #106
      00FF1128H   LINE      CODE     ---       #108
      00FF1128H   LINE      CODE     ---       #109
      00FF112DH   LINE      CODE     ---       #112
      00FF112FH   LINE      CODE     ---       #113
      00FF112FH   LINE      CODE     ---       #114
      00FF1134H   LINE      CODE     ---       #117
      00FF1136H   LINE      CODE     ---       #119
      00FF1136H   LINE      CODE     ---       #120
      00FF113BH   LINE      CODE     ---       #123
      00FF113DH   LINE      CODE     ---       #125
      00FF113DH   LINE      CODE     ---       #126
      00FF113DH   LINE      CODE     ---       #129
      00FF113DH   LINE      CODE     ---       #130
      00FF113DH   LINE      CODE     ---       #133
      00FF113DH   LINE      CODE     ---       #134
      00FF113DH   LINE      CODE     ---       #137
      00FF113DH   LINE      CODE     ---       #138
      00FF113DH   LINE      CODE     ---       #141
      00FF113DH   LINE      CODE     ---       #144
      00FF113FH   LINE      CODE     ---       #145
      00FF1146H   LINE      CODE     ---       #146
      00FF1148H   LINE      CODE     ---       #147
      ---         BLOCKEND  ---      ---       LVL=0

      00FF12FDH   BLOCK     CODE     ---       LVL=0
      00FF1305H   BLOCK     CODE     NEAR LAB  LVL=1
      R10         REGSYM    ---      BYTE      i
      ---         BLOCKEND  ---      ---       LVL=1
      00FF12FDH   LINE      CODE     ---       #158
      00FF1305H   LINE      CODE     ---       #159
      00FF1305H   LINE      CODE     ---       #161
      00FF1310H   LINE      CODE     ---       #162
      00FF131DH   LINE      CODE     ---       #164
      00FF1322H   LINE      CODE     ---       #166
      00FF1324H   LINE      CODE     ---       #167
      00FF1324H   LINE      CODE     ---       #168
L251 LINKER/LOCATER V4.66.93.0                                                        07/31/2024  16:59:11  PAGE 17


      00FF1329H   LINE      CODE     ---       #170
      00FF132BH   LINE      CODE     ---       #171
      00FF132BH   LINE      CODE     ---       #172
      00FF1330H   LINE      CODE     ---       #174
      00FF1332H   LINE      CODE     ---       #175
      00FF1332H   LINE      CODE     ---       #176
      00FF1337H   LINE      CODE     ---       #178
      00FF1339H   LINE      CODE     ---       #179
      00FF1339H   LINE      CODE     ---       #180
      00FF133EH   LINE      CODE     ---       #182
      00FF1340H   LINE      CODE     ---       #183
      00FF1340H   LINE      CODE     ---       #184
      00FF1345H   LINE      CODE     ---       #186
      00FF1347H   LINE      CODE     ---       #187
      00FF1347H   LINE      CODE     ---       #188
      00FF134CH   LINE      CODE     ---       #190
      00FF134EH   LINE      CODE     ---       #191
      00FF134EH   LINE      CODE     ---       #192
      00FF1353H   LINE      CODE     ---       #194
      00FF1355H   LINE      CODE     ---       #195
      ---         BLOCKEND  ---      ---       LVL=0

      00FF115FH   BLOCK     CODE     ---       LVL=0
      00FF1175H   BLOCK     CODE     NEAR LAB  LVL=1
      R10         REGSYM    ---      BYTE      i
      ---         BLOCKEND  ---      ---       LVL=1
      00FF115FH   LINE      CODE     ---       #207
      00FF1175H   LINE      CODE     ---       #208
      00FF1175H   LINE      CODE     ---       #210
      00FF1180H   LINE      CODE     ---       #211
      00FF118DH   LINE      CODE     ---       #213
      00FF118DH   LINE      CODE     ---       #216
      00FF118DH   LINE      CODE     ---       #217
      00FF118DH   LINE      CODE     ---       #220
      00FF118DH   LINE      CODE     ---       #221
      00FF118DH   LINE      CODE     ---       #224
      00FF118DH   LINE      CODE     ---       #225
      00FF118DH   LINE      CODE     ---       #228
      00FF118DH   LINE      CODE     ---       #229
      00FF1192H   LINE      CODE     ---       #232
      00FF1194H   LINE      CODE     ---       #233
      00FF1194H   LINE      CODE     ---       #234
      00FF1199H   LINE      CODE     ---       #237
      00FF119BH   LINE      CODE     ---       #238
      00FF119BH   LINE      CODE     ---       #239
      00FF11A0H   LINE      CODE     ---       #242
      00FF11A2H   LINE      CODE     ---       #243
      00FF11A2H   LINE      CODE     ---       #244
      00FF11A7H   LINE      CODE     ---       #247
      00FF11A9H   LINE      CODE     ---       #248
      00FF11A9H   LINE      CODE     ---       #250
      00FF11ABH   LINE      CODE     ---       #251
      00FF11B2H   LINE      CODE     ---       #252
      00FF11B4H   LINE      CODE     ---       #253
      ---         BLOCKEND  ---      ---       LVL=0

      00FF135EH   BLOCK     CODE     ---       LVL=0
      00FF1366H   BLOCK     CODE     NEAR LAB  LVL=1
      R10         REGSYM    ---      BYTE      i
      ---         BLOCKEND  ---      ---       LVL=1
      00FF135EH   LINE      CODE     ---       #264
      00FF1366H   LINE      CODE     ---       #265
      00FF1366H   LINE      CODE     ---       #267
      00FF1371H   LINE      CODE     ---       #268
      00FF137EH   LINE      CODE     ---       #270
L251 LINKER/LOCATER V4.66.93.0                                                        07/31/2024  16:59:11  PAGE 18


      00FF1383H   LINE      CODE     ---       #272
      00FF1385H   LINE      CODE     ---       #273
      00FF1385H   LINE      CODE     ---       #274
      00FF138AH   LINE      CODE     ---       #276
      00FF138CH   LINE      CODE     ---       #277
      00FF138CH   LINE      CODE     ---       #278
      00FF1391H   LINE      CODE     ---       #280
      00FF1393H   LINE      CODE     ---       #281
      00FF1393H   LINE      CODE     ---       #282
      00FF1398H   LINE      CODE     ---       #284
      00FF139AH   LINE      CODE     ---       #285
      00FF139AH   LINE      CODE     ---       #286
      00FF139FH   LINE      CODE     ---       #288
      00FF13A1H   LINE      CODE     ---       #289
      00FF13A1H   LINE      CODE     ---       #290
      00FF13A6H   LINE      CODE     ---       #292
      00FF13A8H   LINE      CODE     ---       #293
      00FF13A8H   LINE      CODE     ---       #294
      00FF13ADH   LINE      CODE     ---       #296
      00FF13AFH   LINE      CODE     ---       #297
      00FF13AFH   LINE      CODE     ---       #298
      00FF13B4H   LINE      CODE     ---       #300
      00FF13B6H   LINE      CODE     ---       #301
      ---         BLOCKEND  ---      ---       LVL=0

      00FF13BFH   BLOCK     CODE     ---       LVL=0
      00FF13C7H   BLOCK     CODE     NEAR LAB  LVL=1
      R10         REGSYM    ---      BYTE      i
      ---         BLOCKEND  ---      ---       LVL=1
      00FF13BFH   LINE      CODE     ---       #313
      00FF13C7H   LINE      CODE     ---       #314
      00FF13C7H   LINE      CODE     ---       #316
      00FF13D2H   LINE      CODE     ---       #317
      00FF13DFH   LINE      CODE     ---       #319
      00FF13E4H   LINE      CODE     ---       #321
      00FF13E6H   LINE      CODE     ---       #322
      00FF13E6H   LINE      CODE     ---       #323
      00FF13EBH   LINE      CODE     ---       #325
      00FF13EDH   LINE      CODE     ---       #326
      00FF13EDH   LINE      CODE     ---       #327
      00FF13F2H   LINE      CODE     ---       #329
      00FF13F4H   LINE      CODE     ---       #330
      00FF13F4H   LINE      CODE     ---       #331
      00FF13F9H   LINE      CODE     ---       #333
      00FF13FBH   LINE      CODE     ---       #334
      00FF13FBH   LINE      CODE     ---       #335
      00FF1400H   LINE      CODE     ---       #337
      00FF1402H   LINE      CODE     ---       #338
      00FF1402H   LINE      CODE     ---       #339
      00FF1407H   LINE      CODE     ---       #341
      00FF1409H   LINE      CODE     ---       #342
      00FF1409H   LINE      CODE     ---       #343
      00FF140EH   LINE      CODE     ---       #345
      00FF1410H   LINE      CODE     ---       #346
      00FF1410H   LINE      CODE     ---       #347
      00FF1415H   LINE      CODE     ---       #349
      00FF1417H   LINE      CODE     ---       #350
      ---         BLOCKEND  ---      ---       LVL=0

      00FF159EH   BLOCK     CODE     ---       LVL=0
      00FF15A6H   BLOCK     CODE     NEAR LAB  LVL=1
      R10         REGSYM    ---      BYTE      i
      ---         BLOCKEND  ---      ---       LVL=1
      00FF159EH   LINE      CODE     ---       #362
      00FF15A6H   LINE      CODE     ---       #363
L251 LINKER/LOCATER V4.66.93.0                                                        07/31/2024  16:59:11  PAGE 19


      00FF15A6H   LINE      CODE     ---       #365
      00FF15B1H   LINE      CODE     ---       #366
      00FF15BEH   LINE      CODE     ---       #368
      00FF15C3H   LINE      CODE     ---       #370
      00FF15C5H   LINE      CODE     ---       #371
      00FF15C5H   LINE      CODE     ---       #372
      00FF15CAH   LINE      CODE     ---       #374
      00FF15CCH   LINE      CODE     ---       #375
      00FF15CCH   LINE      CODE     ---       #376
      00FF15D1H   LINE      CODE     ---       #378
      00FF15D3H   LINE      CODE     ---       #379
      00FF15D3H   LINE      CODE     ---       #380
      00FF15D8H   LINE      CODE     ---       #382
      00FF15DAH   LINE      CODE     ---       #383
      00FF15DAH   LINE      CODE     ---       #384
      00FF15DFH   LINE      CODE     ---       #386
      00FF15E1H   LINE      CODE     ---       #387
      00FF15E1H   LINE      CODE     ---       #388
      00FF15E6H   LINE      CODE     ---       #390
      00FF15E8H   LINE      CODE     ---       #391
      ---         BLOCKEND  ---      ---       LVL=0

      00FF1420H   BLOCK     CODE     ---       LVL=0
      00FF1428H   BLOCK     CODE     NEAR LAB  LVL=1
      R10         REGSYM    ---      BYTE      i
      ---         BLOCKEND  ---      ---       LVL=1
      00FF1420H   LINE      CODE     ---       #403
      00FF1428H   LINE      CODE     ---       #404
      00FF1428H   LINE      CODE     ---       #406
      00FF1433H   LINE      CODE     ---       #407
      00FF1440H   LINE      CODE     ---       #409
      00FF1445H   LINE      CODE     ---       #411
      00FF1447H   LINE      CODE     ---       #412
      00FF1447H   LINE      CODE     ---       #413
      00FF144CH   LINE      CODE     ---       #415
      00FF144EH   LINE      CODE     ---       #416
      00FF144EH   LINE      CODE     ---       #417
      00FF1453H   LINE      CODE     ---       #419
      00FF1455H   LINE      CODE     ---       #420
      00FF1455H   LINE      CODE     ---       #421
      00FF145AH   LINE      CODE     ---       #423
      00FF145CH   LINE      CODE     ---       #424
      00FF145CH   LINE      CODE     ---       #425
      00FF1461H   LINE      CODE     ---       #427
      00FF1463H   LINE      CODE     ---       #428
      00FF1463H   LINE      CODE     ---       #429
      00FF1468H   LINE      CODE     ---       #431
      00FF146AH   LINE      CODE     ---       #432
      00FF146AH   LINE      CODE     ---       #433
      00FF146FH   LINE      CODE     ---       #435
      00FF1471H   LINE      CODE     ---       #436
      00FF1471H   LINE      CODE     ---       #437
      00FF1476H   LINE      CODE     ---       #439
      00FF1478H   LINE      CODE     ---       #440
      ---         BLOCKEND  ---      ---       LVL=0

      00FF1481H   BLOCK     CODE     ---       LVL=0
      00FF1489H   BLOCK     CODE     NEAR LAB  LVL=1
      R10         REGSYM    ---      BYTE      i
      ---         BLOCKEND  ---      ---       LVL=1
      00FF1481H   LINE      CODE     ---       #452
      00FF1489H   LINE      CODE     ---       #453
      00FF1489H   LINE      CODE     ---       #455
      00FF1494H   LINE      CODE     ---       #456
      00FF14A1H   LINE      CODE     ---       #458
L251 LINKER/LOCATER V4.66.93.0                                                        07/31/2024  16:59:11  PAGE 20


      00FF14A6H   LINE      CODE     ---       #460
      00FF14A8H   LINE      CODE     ---       #461
      00FF14A8H   LINE      CODE     ---       #462
      00FF14ADH   LINE      CODE     ---       #464
      00FF14AFH   LINE      CODE     ---       #465
      00FF14AFH   LINE      CODE     ---       #466
      00FF14B4H   LINE      CODE     ---       #468
      00FF14B6H   LINE      CODE     ---       #469
      00FF14B6H   LINE      CODE     ---       #470
      00FF14BBH   LINE      CODE     ---       #472
      00FF14BDH   LINE      CODE     ---       #473
      00FF14BDH   LINE      CODE     ---       #474
      00FF14C2H   LINE      CODE     ---       #476
      00FF14C4H   LINE      CODE     ---       #477
      00FF14C4H   LINE      CODE     ---       #478
      00FF14C9H   LINE      CODE     ---       #480
      00FF14CBH   LINE      CODE     ---       #481
      00FF14CBH   LINE      CODE     ---       #482
      00FF14D0H   LINE      CODE     ---       #484
      00FF14D2H   LINE      CODE     ---       #485
      00FF14D2H   LINE      CODE     ---       #486
      00FF14D7H   LINE      CODE     ---       #488
      00FF14D9H   LINE      CODE     ---       #489
      ---         BLOCKEND  ---      ---       LVL=0

      ---         MODULE    ---      ---       ebf_control
      00FF0046H   PUBLIC    CODE     ---       Sound_Fre
      000000D0H   SFRSYM    DATA     BYTE      PSW
      0000009DH   SFRSYM    DATA     BYTE      IRCBAND
      00000097H   SFRSYM    DATA     BYTE      AUXR2
      000000A0H.6 SFRSYM    DATA     BIT       five_f
      000000EFH   SFRSYM    DATA     BYTE      AUXINTIF
      000000FDH   SFRSYM    DATA     BYTE      S4CON
      00000080H.2 SFRSYM    DATA     BIT       high_f
      000000ACH   SFRSYM    DATA     BYTE      S3CON
      0000009AH   SFRSYM    DATA     BYTE      S2CON
      000000B7H   SFRSYM    DATA     BYTE      IPH
      000000CDH   SFRSYM    DATA     BYTE      SPSTAT
      00000080H.1 SFRSYM    DATA     BIT       three_f
      000000DDH   SFRSYM    DATA     BYTE      T4T3M
      000000C1H   SFRSYM    DATA     BYTE      WDT_CONTR
      000000DFH   SFRSYM    DATA     BYTE      IP3
      000000F4H   SFRSYM    DATA     BYTE      USBCON
      000000B5H   SFRSYM    DATA     BYTE      IP2
      000000FFH   SFRSYM    DATA     BYTE      RSTCFG
      000000C7H   SFRSYM    DATA     BYTE      IAP_CONTR
      000000F9H   SFRSYM    DATA     BYTE      LINICR
      0000008EH   SFRSYM    DATA     BYTE      AUXR
      000000AFH   SFRSYM    DATA     BYTE      IE2
      00000088H   SFRSYM    DATA     BYTE      TCON
      00000089H   SFRSYM    DATA     BYTE      TMOD
      00000098H   SFRSYM    DATA     BYTE      SCON
      000000F1H   SFRSYM    DATA     BYTE      CANICR
      00000087H   SFRSYM    DATA     BYTE      PCON
      000000BCH   SFRSYM    DATA     BYTE      ADC_CONTR
      000000E7H   SFRSYM    DATA     BYTE      CMPCR2
      000000E6H   SFRSYM    DATA     BYTE      CMPCR1
      000000A0H.7 SFRSYM    DATA     BIT       two_f
      00000080H.0 SFRSYM    DATA     BIT       six_f
      000000DEH   SFRSYM    DATA     BYTE      ADCCFG
      00000080H.3 SFRSYM    DATA     BIT       low_f
      000000B8H   SFRSYM    DATA     BYTE      IP
      0000008FH   SFRSYM    DATA     BYTE      INTCLKO
      000000EEH   SFRSYM    DATA     BYTE      IP3H
      000000B6H   SFRSYM    DATA     BYTE      IP2H
L251 LINKER/LOCATER V4.66.93.0                                                        07/31/2024  16:59:11  PAGE 21


      000000A8H   SFRSYM    DATA     BYTE      IE
      000000BBH   SFRSYM    DATA     BYTE      P_SW3
      000000BAH   SFRSYM    DATA     BYTE      P_SW2
      000000A2H   SFRSYM    DATA     BYTE      P_SW1
      000000A0H.5 SFRSYM    DATA     BIT       one_f
      000000CEH   SFRSYM    DATA     BYTE      SPCTL
      000000F8H   SFRSYM    DATA     BYTE      P7
      000000E8H   SFRSYM    DATA     BYTE      P6
      000000C8H   SFRSYM    DATA     BYTE      P5
      000000A0H.4 SFRSYM    DATA     BIT       four_f
      000000C0H   SFRSYM    DATA     BYTE      P4
      000000B0H   SFRSYM    DATA     BYTE      P3
      000000A0H   SFRSYM    DATA     BYTE      P2
      00000090H   SFRSYM    DATA     BYTE      P1
      00000080H   SFRSYM    DATA     BYTE      P0

      ---         MODULE    ---      ---       ntc_sampling
      00FF0096H   PUBLIC    CODE     ---       CalculationTemperature
      00FF17BAH   PUBLIC    CODE     ---       DataSwap
      00FF1776H   PUBLIC    CODE     ---       ADC_config
      00FF1299H   PUBLIC    CODE     ---       NTC_ADC_convert
      00FF1082H   PUBLIC    CODE     ---       BubbleSort
      0000035DH   PUBLIC    EDATA    ---       ADC_Buffer
      000000D0H   SFRSYM    DATA     BYTE      PSW
      0000009DH   SFRSYM    DATA     BYTE      IRCBAND
      00000097H   SFRSYM    DATA     BYTE      AUXR2
      000000EFH   SFRSYM    DATA     BYTE      AUXINTIF
      000000FDH   SFRSYM    DATA     BYTE      S4CON
      000000ACH   SFRSYM    DATA     BYTE      S3CON
      0000009AH   SFRSYM    DATA     BYTE      S2CON
      000000B7H   SFRSYM    DATA     BYTE      IPH
      000000CDH   SFRSYM    DATA     BYTE      SPSTAT
      000000DDH   SFRSYM    DATA     BYTE      T4T3M
      000000C1H   SFRSYM    DATA     BYTE      WDT_CONTR
      000000DFH   SFRSYM    DATA     BYTE      IP3
      000000F4H   SFRSYM    DATA     BYTE      USBCON
      000000B5H   SFRSYM    DATA     BYTE      IP2
      000000FFH   SFRSYM    DATA     BYTE      RSTCFG
      000000C7H   SFRSYM    DATA     BYTE      IAP_CONTR
      000000F9H   SFRSYM    DATA     BYTE      LINICR
      0000008EH   SFRSYM    DATA     BYTE      AUXR
      000000AFH   SFRSYM    DATA     BYTE      IE2
      00000088H   SFRSYM    DATA     BYTE      TCON
      00000089H   SFRSYM    DATA     BYTE      TMOD
      00000098H   SFRSYM    DATA     BYTE      SCON
      000000F1H   SFRSYM    DATA     BYTE      CANICR
      00000087H   SFRSYM    DATA     BYTE      PCON
      000000BCH   SFRSYM    DATA     BYTE      ADC_CONTR
      000000E7H   SFRSYM    DATA     BYTE      CMPCR2
      000000E6H   SFRSYM    DATA     BYTE      CMPCR1
      000000DEH   SFRSYM    DATA     BYTE      ADCCFG
      000000B8H   SFRSYM    DATA     BYTE      IP
      0000008FH   SFRSYM    DATA     BYTE      INTCLKO
      000000EEH   SFRSYM    DATA     BYTE      IP3H
      000000B6H   SFRSYM    DATA     BYTE      IP2H
      000000A8H   SFRSYM    DATA     BYTE      IE
      000000BBH   SFRSYM    DATA     BYTE      P_SW3
      000000BAH   SFRSYM    DATA     BYTE      P_SW2
      000000A2H   SFRSYM    DATA     BYTE      P_SW1
      000000CEH   SFRSYM    DATA     BYTE      SPCTL
      000000F8H   SFRSYM    DATA     BYTE      P7
      000000E8H   SFRSYM    DATA     BYTE      P6
      000000C8H   SFRSYM    DATA     BYTE      P5
      000000C0H   SFRSYM    DATA     BYTE      P4
      000000B0H   SFRSYM    DATA     BYTE      P3
L251 LINKER/LOCATER V4.66.93.0                                                        07/31/2024  16:59:11  PAGE 22


      000000A0H   SFRSYM    DATA     BYTE      P2
      00000090H   SFRSYM    DATA     BYTE      P1
      00000080H   SFRSYM    DATA     BYTE      P0

      00FF1776H   BLOCK     CODE     ---       LVL=0
      00000335H   SYMBOL    EDATA    ---       ADC_InitStructure
      00FF1776H   LINE      CODE     ---       #8
      00FF1776H   LINE      CODE     ---       #9
      00FF1776H   LINE      CODE     ---       #11
      00FF177CH   LINE      CODE     ---       #12
      00FF1781H   LINE      CODE     ---       #13
      00FF1787H   LINE      CODE     ---       #14
      00FF178DH   LINE      CODE     ---       #15
      00FF1793H   LINE      CODE     ---       #16
      00FF179AH   LINE      CODE     ---       #17
      00FF179FH   LINE      CODE     ---       #18
      ---         BLOCKEND  ---      ---       LVL=0

      00FF1299H   BLOCK     CODE     ---       LVL=0
      R15         REGSYM    ---      BYTE      chn
      00FF129DH   BLOCK     CODE     NEAR LAB  LVL=1
      WR12        REGSYM    ---      WORD      j
      R14         REGSYM    ---      BYTE      k
      DR4         REGSYM    ---      FLOAT     vADC
      ---         BLOCKEND  ---      ---       LVL=1
      00FF1299H   LINE      CODE     ---       #24
      00FF129DH   LINE      CODE     ---       #25
      00FF129DH   LINE      CODE     ---       #30
      00FF12A0H   LINE      CODE     ---       #31
      00FF12A5H   LINE      CODE     ---       #35
      00FF12BBH   LINE      CODE     ---       #36
      00FF12C4H   LINE      CODE     ---       #37
      00FF12DAH   LINE      CODE     ---       #38
      00FF12E0H   LINE      CODE     ---       #47
      00FF12F5H   LINE      CODE     ---       #49
      00FF12F5H   LINE      CODE     ---       #52
      00FF12FAH   LINE      CODE     ---       #54
      00FF12FAH   LINE      CODE     ---       #63
      ---         BLOCKEND  ---      ---       LVL=0

      00FF0096H   BLOCK     CODE     ---       LVL=0
      WR8         REGSYM    ---      WORD      adc
      00FF0098H   BLOCK     CODE     NEAR LAB  LVL=1
      DR4         REGSYM    ---      FLOAT     Temperature
      DR12        REGSYM    ---      FLOAT     R2
      DR24        REGSYM    ---      FLOAT     R2V
      ---         BLOCKEND  ---      ---       LVL=1
      00FF0096H   LINE      CODE     ---       #69
      00FF0098H   LINE      CODE     ---       #70
      00FF0098H   LINE      CODE     ---       #71
      00FF0098H   LINE      CODE     ---       #72
      00FF0098H   LINE      CODE     ---       #73
      00FF0098H   LINE      CODE     ---       #74
      00FF0098H   LINE      CODE     ---       #75
      00FF0098H   LINE      CODE     ---       #76
      00FF0098H   LINE      CODE     ---       #77
      00FF0098H   LINE      CODE     ---       #79
      00FF00A9H   LINE      CODE     ---       #80
      00FF00CAH   LINE      CODE     ---       #81
      00FF00D9H   LINE      CODE     ---       #82
      00FF011EH   LINE      CODE     ---       #84
      00FF011EH   LINE      CODE     ---       #85
      ---         BLOCKEND  ---      ---       LVL=0

      00FF17BAH   BLOCK     CODE     ---       LVL=0
L251 LINKER/LOCATER V4.66.93.0                                                        07/31/2024  16:59:11  PAGE 23


      REG=7       REGSYM    ---      ---       data1
      REG=2       REGSYM    ---      ---       data2
      00FF17BEH   BLOCK     CODE     NEAR LAB  LVL=1
      WR6         REGSYM    ---      WORD      temp
      ---         BLOCKEND  ---      ---       LVL=1
      00FF17BAH   LINE      CODE     ---       #98
      00FF17BEH   LINE      CODE     ---       #99
      00FF17BEH   LINE      CODE     ---       #101
      00FF17C1H   LINE      CODE     ---       #102
      00FF17C7H   LINE      CODE     ---       #103
      00FF17CAH   LINE      CODE     ---       #104
      ---         BLOCKEND  ---      ---       LVL=0

      00FF1082H   BLOCK     CODE     ---       LVL=0
      REG=3       REGSYM    ---      ---       pDataArry
      00000335H   SYMBOL    EDATA    BYTE      DataNum
      00FF108AH   BLOCK     CODE     NEAR LAB  LVL=1
      00000020H.3 SYMBOL    BIT      BIT       flag
      00000336H   SYMBOL    EDATA    BYTE      i
      00000337H   SYMBOL    EDATA    BYTE      j
      ---         BLOCKEND  ---      ---       LVL=1
      00FF1082H   LINE      CODE     ---       #115
      00FF108AH   LINE      CODE     ---       #116
      00FF108AH   LINE      CODE     ---       #119
      00FF108DH   LINE      CODE     ---       #121
      00FF108FH   LINE      CODE     ---       #122
      00FF1092H   LINE      CODE     ---       #124
      00FF10AAH   LINE      CODE     ---       #126
      00FF10ACH   LINE      CODE     ---       #127
      00FF10B3H   LINE      CODE     ---       #128
      00FF10D6H   LINE      CODE     ---       #130
      00FF10D9H   LINE      CODE     ---       #132
      00FF10D9H   LINE      CODE     ---       #133
      00FF10F0H   LINE      CODE     ---       #135
      ---         BLOCKEND  ---      ---       LVL=0

      ---         MODULE    ---      ---       STC32G_GPIO
      00000094H   SFRSYM    DATA     BYTE      P0M0
      000000D0H   SFRSYM    DATA     BYTE      PSW
      0000009DH   SFRSYM    DATA     BYTE      IRCBAND
      00000097H   SFRSYM    DATA     BYTE      AUXR2
      000000EFH   SFRSYM    DATA     BYTE      AUXINTIF
      000000FDH   SFRSYM    DATA     BYTE      S4CON
      000000ACH   SFRSYM    DATA     BYTE      S3CON
      0000009AH   SFRSYM    DATA     BYTE      S2CON
      000000B7H   SFRSYM    DATA     BYTE      IPH
      000000CDH   SFRSYM    DATA     BYTE      SPSTAT
      000000DDH   SFRSYM    DATA     BYTE      T4T3M
      000000C1H   SFRSYM    DATA     BYTE      WDT_CONTR
      000000DFH   SFRSYM    DATA     BYTE      IP3
      000000F4H   SFRSYM    DATA     BYTE      USBCON
      000000B5H   SFRSYM    DATA     BYTE      IP2
      000000FFH   SFRSYM    DATA     BYTE      RSTCFG
      000000C7H   SFRSYM    DATA     BYTE      IAP_CONTR
      000000F9H   SFRSYM    DATA     BYTE      LINICR
      0000008EH   SFRSYM    DATA     BYTE      AUXR
      000000AFH   SFRSYM    DATA     BYTE      IE2
      00000088H   SFRSYM    DATA     BYTE      TCON
      00000089H   SFRSYM    DATA     BYTE      TMOD
      00000098H   SFRSYM    DATA     BYTE      SCON
      000000F1H   SFRSYM    DATA     BYTE      CANICR
      00000087H   SFRSYM    DATA     BYTE      PCON
      000000BCH   SFRSYM    DATA     BYTE      ADC_CONTR
      000000E7H   SFRSYM    DATA     BYTE      CMPCR2
      000000E6H   SFRSYM    DATA     BYTE      CMPCR1
L251 LINKER/LOCATER V4.66.93.0                                                        07/31/2024  16:59:11  PAGE 24


      000000DEH   SFRSYM    DATA     BYTE      ADCCFG
      000000B8H   SFRSYM    DATA     BYTE      IP
      0000008FH   SFRSYM    DATA     BYTE      INTCLKO
      000000EEH   SFRSYM    DATA     BYTE      IP3H
      000000B6H   SFRSYM    DATA     BYTE      IP2H
      000000A8H   SFRSYM    DATA     BYTE      IE
      000000BBH   SFRSYM    DATA     BYTE      P_SW3
      000000BAH   SFRSYM    DATA     BYTE      P_SW2
      000000A2H   SFRSYM    DATA     BYTE      P_SW1
      000000CEH   SFRSYM    DATA     BYTE      SPCTL
      000000F8H   SFRSYM    DATA     BYTE      P7
      000000E1H   SFRSYM    DATA     BYTE      P7M1
      000000E8H   SFRSYM    DATA     BYTE      P6
      000000C8H   SFRSYM    DATA     BYTE      P5
      000000CBH   SFRSYM    DATA     BYTE      P6M1
      000000E2H   SFRSYM    DATA     BYTE      P7M0
      000000C0H   SFRSYM    DATA     BYTE      P4
      000000C9H   SFRSYM    DATA     BYTE      P5M1
      000000CCH   SFRSYM    DATA     BYTE      P6M0
      000000B0H   SFRSYM    DATA     BYTE      P3
      000000B3H   SFRSYM    DATA     BYTE      P4M1
      000000CAH   SFRSYM    DATA     BYTE      P5M0
      000000A0H   SFRSYM    DATA     BYTE      P2
      000000B1H   SFRSYM    DATA     BYTE      P3M1
      000000B4H   SFRSYM    DATA     BYTE      P4M0
      00000090H   SFRSYM    DATA     BYTE      P1
      00000095H   SFRSYM    DATA     BYTE      P2M1
      000000B2H   SFRSYM    DATA     BYTE      P3M0
      00000080H   SFRSYM    DATA     BYTE      P0
      00000091H   SFRSYM    DATA     BYTE      P1M1
      00000096H   SFRSYM    DATA     BYTE      P2M0
      00000092H   SFRSYM    DATA     BYTE      P1M0
      00000093H   SFRSYM    DATA     BYTE      P0M1
      R10         REGSYM    ---      BYTE      GPIO
      REG=0       REGSYM    ---      ---       GPIOx

      ---         MODULE    ---      ---       STC32G_Delay
      00FF0003H   PUBLIC    CODE     ---       delay_ms
      000000D0H   SFRSYM    DATA     BYTE      PSW
      0000009DH   SFRSYM    DATA     BYTE      IRCBAND
      00000097H   SFRSYM    DATA     BYTE      AUXR2
      000000EFH   SFRSYM    DATA     BYTE      AUXINTIF
      000000FDH   SFRSYM    DATA     BYTE      S4CON
      000000ACH   SFRSYM    DATA     BYTE      S3CON
      0000009AH   SFRSYM    DATA     BYTE      S2CON
      000000B7H   SFRSYM    DATA     BYTE      IPH
      000000CDH   SFRSYM    DATA     BYTE      SPSTAT
      000000DDH   SFRSYM    DATA     BYTE      T4T3M
      000000C1H   SFRSYM    DATA     BYTE      WDT_CONTR
      000000DFH   SFRSYM    DATA     BYTE      IP3
      000000F4H   SFRSYM    DATA     BYTE      USBCON
      000000B5H   SFRSYM    DATA     BYTE      IP2
      000000FFH   SFRSYM    DATA     BYTE      RSTCFG
      000000C7H   SFRSYM    DATA     BYTE      IAP_CONTR
      000000F9H   SFRSYM    DATA     BYTE      LINICR
      0000008EH   SFRSYM    DATA     BYTE      AUXR
      000000AFH   SFRSYM    DATA     BYTE      IE2
      00000088H   SFRSYM    DATA     BYTE      TCON
      00000089H   SFRSYM    DATA     BYTE      TMOD
      00000098H   SFRSYM    DATA     BYTE      SCON
      000000F1H   SFRSYM    DATA     BYTE      CANICR
      00000087H   SFRSYM    DATA     BYTE      PCON
      000000BCH   SFRSYM    DATA     BYTE      ADC_CONTR
      000000E7H   SFRSYM    DATA     BYTE      CMPCR2
      000000E6H   SFRSYM    DATA     BYTE      CMPCR1
L251 LINKER/LOCATER V4.66.93.0                                                        07/31/2024  16:59:11  PAGE 25


      000000DEH   SFRSYM    DATA     BYTE      ADCCFG
      000000B8H   SFRSYM    DATA     BYTE      IP
      0000008FH   SFRSYM    DATA     BYTE      INTCLKO
      000000EEH   SFRSYM    DATA     BYTE      IP3H
      000000B6H   SFRSYM    DATA     BYTE      IP2H
      000000A8H   SFRSYM    DATA     BYTE      IE
      000000BBH   SFRSYM    DATA     BYTE      P_SW3
      000000BAH   SFRSYM    DATA     BYTE      P_SW2
      000000A2H   SFRSYM    DATA     BYTE      P_SW1
      000000CEH   SFRSYM    DATA     BYTE      SPCTL
      000000F8H   SFRSYM    DATA     BYTE      P7
      000000E8H   SFRSYM    DATA     BYTE      P6
      000000C8H   SFRSYM    DATA     BYTE      P5
      000000C0H   SFRSYM    DATA     BYTE      P4
      000000B0H   SFRSYM    DATA     BYTE      P3
      000000A0H   SFRSYM    DATA     BYTE      P2
      00000090H   SFRSYM    DATA     BYTE      P1
      00000080H   SFRSYM    DATA     BYTE      P0

      00FF0003H   BLOCK     CODE     ---       LVL=0
      WR4         REGSYM    ---      WORD      ms
      00FF0005H   BLOCK     CODE     NEAR LAB  LVL=1
      WR6         REGSYM    ---      WORD      i
      ---         BLOCKEND  ---      ---       LVL=1
      00FF0003H   LINE      CODE     ---       #25
      00FF0005H   LINE      CODE     ---       #26
      00FF0005H   LINE      CODE     ---       #28
      00FF0005H   LINE      CODE     ---       #29
      00FF0009H   LINE      CODE     ---       #30
      00FF0011H   LINE      CODE     ---       #31
      00FF0019H   LINE      CODE     ---       #32
      ---         BLOCKEND  ---      ---       LVL=0

      ---         MODULE    ---      ---       STC32G_UART
      00FF0B62H   PUBLIC    CODE     ---       UART_Configuration
      00FF17CBH   PUBLIC    CODE     ---       TX1_write2buff
      00FF007EH   PUBLIC    CODE     ---       putchar
      00000021H   PUBLIC    EDATA    ---       COM1
      00000026H   PUBLIC    EDATA    ---       COM2
      0000002BH   PUBLIC    EDATA    ---       COM3
      00000030H   PUBLIC    EDATA    ---       COM4
      00000035H   PUBLIC    EDATA    ---       RX1_Buffer
      000000B5H   PUBLIC    EDATA    ---       RX2_Buffer
      00000135H   PUBLIC    EDATA    ---       RX3_Buffer
      00000175H   PUBLIC    EDATA    ---       TX1_Buffer
      000001F5H   PUBLIC    EDATA    ---       RX4_Buffer
      00000235H   PUBLIC    EDATA    ---       TX2_Buffer
      000002B5H   PUBLIC    EDATA    ---       TX3_Buffer
      000002F5H   PUBLIC    EDATA    ---       TX4_Buffer
      0000008EH.3 SFRSYM    DATA     BIT       T2_CT
      00000089H.6 SFRSYM    DATA     BIT       T1_CT
      000000D0H   SFRSYM    DATA     BYTE      PSW
      0000009DH   SFRSYM    DATA     BYTE      IRCBAND
      00000097H   SFRSYM    DATA     BYTE      AUXR2
      0000008EH.0 SFRSYM    DATA     BIT       S1BRT
      000000FDH.4 SFRSYM    DATA     BIT       S4REN
      000000ACH.4 SFRSYM    DATA     BIT       S3REN
      0000009AH.4 SFRSYM    DATA     BIT       S2REN
      000000EFH   SFRSYM    DATA     BYTE      AUXINTIF
      000000FDH   SFRSYM    DATA     BYTE      S4CON
      000000ACH   SFRSYM    DATA     BYTE      S3CON
      0000009AH   SFRSYM    DATA     BYTE      S2CON
      00000098H.4 SFRSYM    DATA     BIT       REN
      000000FEH   SFRSYM    DATA     BYTE      S4BUF
      000000ADH   SFRSYM    DATA     BYTE      S3BUF
L251 LINKER/LOCATER V4.66.93.0                                                        07/31/2024  16:59:11  PAGE 26


      000000DDH.5 SFRSYM    DATA     BIT       T4x12
      0000009BH   SFRSYM    DATA     BYTE      S2BUF
      000000DDH.1 SFRSYM    DATA     BIT       T3x12
      000000FDH.6 SFRSYM    DATA     BIT       S4ST4
      0000008EH.2 SFRSYM    DATA     BIT       T2x12
      0000008EH.6 SFRSYM    DATA     BIT       T1x12
      000000ACH.6 SFRSYM    DATA     BIT       S3ST3
      000000B7H   SFRSYM    DATA     BYTE      IPH
      000000CDH   SFRSYM    DATA     BYTE      SPSTAT
      000000DDH   SFRSYM    DATA     BYTE      T4T3M
      000000DDH.7 SFRSYM    DATA     BIT       T4R
      000000DDH.3 SFRSYM    DATA     BIT       T3R
      0000008EH.4 SFRSYM    DATA     BIT       T2R
      000000C1H   SFRSYM    DATA     BYTE      WDT_CONTR
      000000FDH.7 SFRSYM    DATA     BIT       S4SM0
      00000088H.6 SFRSYM    DATA     BIT       TR1
      000000ACH.7 SFRSYM    DATA     BIT       S3SM0
      000000D3H   SFRSYM    DATA     BYTE      T4L
      000000D5H   SFRSYM    DATA     BYTE      T3L
      000000D7H   SFRSYM    DATA     BYTE      T2L
      0000008BH   SFRSYM    DATA     BYTE      TL1
      000000D2H   SFRSYM    DATA     BYTE      T4H
      000000D4H   SFRSYM    DATA     BYTE      T3H
      000000D6H   SFRSYM    DATA     BYTE      T2H
      0000008DH   SFRSYM    DATA     BYTE      TH1
      000000DFH   SFRSYM    DATA     BYTE      IP3
      000000F4H   SFRSYM    DATA     BYTE      USBCON
      000000B5H   SFRSYM    DATA     BYTE      IP2
      000000FFH   SFRSYM    DATA     BYTE      RSTCFG
      000000C7H   SFRSYM    DATA     BYTE      IAP_CONTR
      000000F9H   SFRSYM    DATA     BYTE      LINICR
      0000008EH   SFRSYM    DATA     BYTE      AUXR
      000000AFH   SFRSYM    DATA     BYTE      IE2
      00000088H   SFRSYM    DATA     BYTE      TCON
      00000089H   SFRSYM    DATA     BYTE      TMOD
      00000087H.7 SFRSYM    DATA     BIT       SMOD
      00000098H   SFRSYM    DATA     BYTE      SCON
      000000F1H   SFRSYM    DATA     BYTE      CANICR
      00000087H   SFRSYM    DATA     BYTE      PCON
      0000008EH.5 SFRSYM    DATA     BIT       S1M0x6
      00000099H   SFRSYM    DATA     BYTE      SBUF
      000000BCH   SFRSYM    DATA     BYTE      ADC_CONTR
      000000E7H   SFRSYM    DATA     BYTE      CMPCR2
      000000E6H   SFRSYM    DATA     BYTE      CMPCR1
      000000DEH   SFRSYM    DATA     BYTE      ADCCFG
      000000B8H   SFRSYM    DATA     BYTE      IP
      0000008FH   SFRSYM    DATA     BYTE      INTCLKO
      000000EEH   SFRSYM    DATA     BYTE      IP3H
      000000B6H   SFRSYM    DATA     BYTE      IP2H
      000000A8H   SFRSYM    DATA     BYTE      IE
      000000BBH   SFRSYM    DATA     BYTE      P_SW3
      000000BAH   SFRSYM    DATA     BYTE      P_SW2
      000000A2H   SFRSYM    DATA     BYTE      P_SW1
      000000CEH   SFRSYM    DATA     BYTE      SPCTL
      000000F8H   SFRSYM    DATA     BYTE      P7
      000000E8H   SFRSYM    DATA     BYTE      P6
      000000C8H   SFRSYM    DATA     BYTE      P5
      000000C0H   SFRSYM    DATA     BYTE      P4
      000000B0H   SFRSYM    DATA     BYTE      P3
      000000A0H   SFRSYM    DATA     BYTE      P2
      00000090H   SFRSYM    DATA     BYTE      P1
      00000080H   SFRSYM    DATA     BYTE      P0
      000000DDH.6 SFRSYM    DATA     BIT       T4_CT
      000000DDH.2 SFRSYM    DATA     BIT       T3_CT

L251 LINKER/LOCATER V4.66.93.0                                                        07/31/2024  16:59:11  PAGE 27


      00FF0B62H   BLOCK     CODE     ---       LVL=0
      R10         REGSYM    ---      BYTE      UARTx
      REG=7       REGSYM    ---      ---       COMx
      00FF0B68H   BLOCK     CODE     NEAR LAB  LVL=1
      WR26        REGSYM    ---      WORD      i
      DR20        REGSYM    ---      DWORD     j
      ---         BLOCKEND  ---      ---       LVL=1
      00FF0B62H   LINE      CODE     ---       #48
      00FF0B68H   LINE      CODE     ---       #49
      00FF0B68H   LINE      CODE     ---       #59
      00FF0B70H   LINE      CODE     ---       #61
      00FF0B75H   LINE      CODE     ---       #62
      00FF0B79H   LINE      CODE     ---       #63
      00FF0B7DH   LINE      CODE     ---       #64
      00FF0B81H   LINE      CODE     ---       #65
      00FF0B85H   LINE      CODE     ---       #67
      00FF0B94H   LINE      CODE     ---       #68
      00FF0BA3H   LINE      CODE     ---       #70
      00FF0BAEH   LINE      CODE     ---       #71
      00FF0BB8H   LINE      CODE     ---       #73
      00FF0BCDH   LINE      CODE     ---       #74
      00FF0BDCH   LINE      CODE     ---       #75
      00FF0BE0H   LINE      CODE     ---       #76
      00FF0BE7H   LINE      CODE     ---       #78
      00FF0BEAH   LINE      CODE     ---       #79
      00FF0BEDH   LINE      CODE     ---       #80
      00FF0BF0H   LINE      CODE     ---       #81
      00FF0BF3H   LINE      CODE     ---       #82
      00FF0BF9H   LINE      CODE     ---       #83
      00FF0BFFH   LINE      CODE     ---       #84
      00FF0C02H   LINE      CODE     ---       #85
      00FF0C04H   LINE      CODE     ---       #88
      00FF0C06H   LINE      CODE     ---       #89
      00FF0C09H   LINE      CODE     ---       #90
      00FF0C0CH   LINE      CODE     ---       #91
      00FF0C0FH   LINE      CODE     ---       #92
      00FF0C12H   LINE      CODE     ---       #93
      00FF0C18H   LINE      CODE     ---       #94
      00FF0C1EH   LINE      CODE     ---       #95
      00FF0C20H   LINE      CODE     ---       #96
      00FF0C20H   LINE      CODE     ---       #97
      00FF0C22H   LINE      CODE     ---       #98
      00FF0C26H   LINE      CODE     ---       #100
      00FF0C32H   LINE      CODE     ---       #101
      00FF0C35H   LINE      CODE     ---       #102
      00FF0C37H   LINE      CODE     ---       #103
      00FF0C3CH   LINE      CODE     ---       #105
      00FF0C48H   LINE      CODE     ---       #106
      00FF0C4BH   LINE      CODE     ---       #107
      00FF0C4BH   LINE      CODE     ---       #108
      00FF0C57H   LINE      CODE     ---       #110
      00FF0C5BH   LINE      CODE     ---       #111
      00FF0C5BH   LINE      CODE     ---       #114
      00FF0C63H   LINE      CODE     ---       #116
      00FF0C68H   LINE      CODE     ---       #117
      00FF0C6CH   LINE      CODE     ---       #118
      00FF0C70H   LINE      CODE     ---       #119
      00FF0C74H   LINE      CODE     ---       #120
      00FF0C78H   LINE      CODE     ---       #122
      00FF0C87H   LINE      CODE     ---       #123
      00FF0C96H   LINE      CODE     ---       #125
      00FF0CA1H   LINE      CODE     ---       #126
      00FF0CABH   LINE      CODE     ---       #128
      00FF0CC0H   LINE      CODE     ---       #129
      00FF0CCFH   LINE      CODE     ---       #130
L251 LINKER/LOCATER V4.66.93.0                                                        07/31/2024  16:59:11  PAGE 28


      00FF0CD1H   LINE      CODE     ---       #131
      00FF0CD4H   LINE      CODE     ---       #132
      00FF0CD7H   LINE      CODE     ---       #133
      00FF0CDAH   LINE      CODE     ---       #134
      00FF0CDEH   LINE      CODE     ---       #135
      00FF0CE2H   LINE      CODE     ---       #136
      00FF0CE5H   LINE      CODE     ---       #137
      00FF0CE7H   LINE      CODE     ---       #138
      00FF0CECH   LINE      CODE     ---       #139
      00FF0CFAH   LINE      CODE     ---       #141
      00FF0CFEH   LINE      CODE     ---       #142
      00FF0CFEH   LINE      CODE     ---       #145
      00FF0D06H   LINE      CODE     ---       #147
      00FF0D0BH   LINE      CODE     ---       #148
      00FF0D0FH   LINE      CODE     ---       #149
      00FF0D13H   LINE      CODE     ---       #150
      00FF0D17H   LINE      CODE     ---       #151
      00FF0D1BH   LINE      CODE     ---       #152
      00FF0D2AH   LINE      CODE     ---       #153
      00FF0D39H   LINE      CODE     ---       #155
      00FF0D44H   LINE      CODE     ---       #157
      00FF0D4CH   LINE      CODE     ---       #158
      00FF0D4FH   LINE      CODE     ---       #159
      00FF0D64H   LINE      CODE     ---       #160
      00FF0D73H   LINE      CODE     ---       #161
      00FF0D77H   LINE      CODE     ---       #162
      00FF0D7EH   LINE      CODE     ---       #164
      00FF0D81H   LINE      CODE     ---       #165
      00FF0D84H   LINE      CODE     ---       #166
      00FF0D87H   LINE      CODE     ---       #167
      00FF0D8AH   LINE      CODE     ---       #168
      00FF0D90H   LINE      CODE     ---       #169
      00FF0D96H   LINE      CODE     ---       #170
      00FF0D99H   LINE      CODE     ---       #171
      00FF0D9BH   LINE      CODE     ---       #174
      00FF0D9EH   LINE      CODE     ---       #175
      00FF0DA1H   LINE      CODE     ---       #176
      00FF0DA7H   LINE      CODE     ---       #177
      00FF0DADH   LINE      CODE     ---       #178
      00FF0DB0H   LINE      CODE     ---       #179
      00FF0DB3H   LINE      CODE     ---       #180
      00FF0DB6H   LINE      CODE     ---       #181
      00FF0DB6H   LINE      CODE     ---       #182
      00FF0DB8H   LINE      CODE     ---       #183
      00FF0DBDH   LINE      CODE     ---       #184
      00FF0DCBH   LINE      CODE     ---       #186
      00FF0DCFH   LINE      CODE     ---       #187
      00FF0DCFH   LINE      CODE     ---       #190
      00FF0DD7H   LINE      CODE     ---       #192
      00FF0DDCH   LINE      CODE     ---       #193
      00FF0DE0H   LINE      CODE     ---       #194
      00FF0DE4H   LINE      CODE     ---       #195
      00FF0DE8H   LINE      CODE     ---       #196
      00FF0DECH   LINE      CODE     ---       #197
      00FF0DFBH   LINE      CODE     ---       #198
      00FF0E0AH   LINE      CODE     ---       #200
      00FF0E15H   LINE      CODE     ---       #202
      00FF0E1DH   LINE      CODE     ---       #203
      00FF0E20H   LINE      CODE     ---       #204
      00FF0E35H   LINE      CODE     ---       #205
      00FF0E43H   LINE      CODE     ---       #206
      00FF0E47H   LINE      CODE     ---       #207
      00FF0E4EH   LINE      CODE     ---       #209
      00FF0E51H   LINE      CODE     ---       #210
      00FF0E54H   LINE      CODE     ---       #211
L251 LINKER/LOCATER V4.66.93.0                                                        07/31/2024  16:59:11  PAGE 29


      00FF0E57H   LINE      CODE     ---       #212
      00FF0E5AH   LINE      CODE     ---       #213
      00FF0E60H   LINE      CODE     ---       #214
      00FF0E66H   LINE      CODE     ---       #215
      00FF0E69H   LINE      CODE     ---       #216
      00FF0E6BH   LINE      CODE     ---       #219
      00FF0E6EH   LINE      CODE     ---       #220
      00FF0E71H   LINE      CODE     ---       #221
      00FF0E77H   LINE      CODE     ---       #222
      00FF0E7DH   LINE      CODE     ---       #223
      00FF0E80H   LINE      CODE     ---       #224
      00FF0E83H   LINE      CODE     ---       #225
      00FF0E86H   LINE      CODE     ---       #226
      00FF0E86H   LINE      CODE     ---       #227
      00FF0E88H   LINE      CODE     ---       #228
      00FF0E8CH   LINE      CODE     ---       #229
      00FF0E9AH   LINE      CODE     ---       #231
      00FF0E9DH   LINE      CODE     ---       #232
      00FF0E9DH   LINE      CODE     ---       #234
      00FF0E9FH   LINE      CODE     ---       #235
      ---         BLOCKEND  ---      ---       LVL=0

      00FF17CBH   BLOCK     CODE     ---       LVL=0
      R11         REGSYM    ---      BYTE      dat
      00FF17CBH   LINE      CODE     ---       #241
      00FF17CBH   LINE      CODE     ---       #254
      00FF17CEH   LINE      CODE     ---       #255
      00FF17D4H   LINE      CODE     ---       #256
      00FF17DAH   LINE      CODE     ---       #258
      ---         BLOCKEND  ---      ---       LVL=0
      REG=3       REGSYM    ---      ---       puts
      R11         REGSYM    ---      BYTE      dat
      REG=3       REGSYM    ---      ---       puts
      R11         REGSYM    ---      BYTE      dat
      REG=3       REGSYM    ---      ---       puts
      R11         REGSYM    ---      BYTE      dat
      REG=3       REGSYM    ---      ---       puts

      00FF007EH   BLOCK     CODE     ---       LVL=0
      R15         REGSYM    ---      CHAR      c
      00FF007EH   LINE      CODE     ---       #370
      00FF0082H   LINE      CODE     ---       #372
      00FF0085H   LINE      CODE     ---       #373
      00FF0087H   LINE      CODE     ---       #374
      ---         BLOCKEND  ---      ---       LVL=0

      ---         MODULE    ---      ---       STC32G_UART_Isr
      00FF1234H   PUBLIC    CODE     ---       UART1_ISR_Handler
      00FF11CBH   PUBLIC    CODE     ---       UART2_ISR_Handler
      00FF15F1H   PUBLIC    CODE     ---       UART3_ISR_Handler
      00FF1639H   PUBLIC    CODE     ---       UART4_ISR_Handler
      00000020H.0 PUBLIC    BIT      BIT       B_ULinRX1_Flag
      00000020H.1 PUBLIC    BIT      BIT       B_ULinRX2_Flag
      000000D0H   SFRSYM    DATA     BYTE      PSW
      0000009DH   SFRSYM    DATA     BYTE      IRCBAND
      00000097H   SFRSYM    DATA     BYTE      AUXR2
      000000EFH   SFRSYM    DATA     BYTE      AUXINTIF
      000000FDH   SFRSYM    DATA     BYTE      S4CON
      000000ACH   SFRSYM    DATA     BYTE      S3CON
      0000009AH   SFRSYM    DATA     BYTE      S2CON
      000000FEH   SFRSYM    DATA     BYTE      S4BUF
      000000ADH   SFRSYM    DATA     BYTE      S3BUF
      0000009BH   SFRSYM    DATA     BYTE      S2BUF
      000000B7H   SFRSYM    DATA     BYTE      IPH
      000000CDH   SFRSYM    DATA     BYTE      SPSTAT
L251 LINKER/LOCATER V4.66.93.0                                                        07/31/2024  16:59:11  PAGE 30


      000000DDH   SFRSYM    DATA     BYTE      T4T3M
      000000C1H   SFRSYM    DATA     BYTE      WDT_CONTR
      000000DFH   SFRSYM    DATA     BYTE      IP3
      000000F4H   SFRSYM    DATA     BYTE      USBCON
      000000B5H   SFRSYM    DATA     BYTE      IP2
      000000FFH   SFRSYM    DATA     BYTE      RSTCFG
      000000C7H   SFRSYM    DATA     BYTE      IAP_CONTR
      000000F9H   SFRSYM    DATA     BYTE      LINICR
      0000008EH   SFRSYM    DATA     BYTE      AUXR
      000000AFH   SFRSYM    DATA     BYTE      IE2
      00000088H   SFRSYM    DATA     BYTE      TCON
      00000089H   SFRSYM    DATA     BYTE      TMOD
      00000098H   SFRSYM    DATA     BYTE      SCON
      000000F1H   SFRSYM    DATA     BYTE      CANICR
      00000087H   SFRSYM    DATA     BYTE      PCON
      00000099H   SFRSYM    DATA     BYTE      SBUF
      000000BCH   SFRSYM    DATA     BYTE      ADC_CONTR
      000000E7H   SFRSYM    DATA     BYTE      CMPCR2
      000000E6H   SFRSYM    DATA     BYTE      CMPCR1
      000000FDH.1 SFRSYM    DATA     BIT       S4TI
      000000ACH.1 SFRSYM    DATA     BIT       S3TI
      0000009AH.1 SFRSYM    DATA     BIT       S2TI
      000000FDH.0 SFRSYM    DATA     BIT       S4RI
      000000ACH.0 SFRSYM    DATA     BIT       S3RI
      0000009AH.0 SFRSYM    DATA     BIT       S2RI
      00000098H.1 SFRSYM    DATA     BIT       TI
      00000098H.0 SFRSYM    DATA     BIT       RI
      000000DEH   SFRSYM    DATA     BYTE      ADCCFG
      000000B8H   SFRSYM    DATA     BYTE      IP
      0000008FH   SFRSYM    DATA     BYTE      INTCLKO
      000000EEH   SFRSYM    DATA     BYTE      IP3H
      000000B6H   SFRSYM    DATA     BYTE      IP2H
      000000A8H   SFRSYM    DATA     BYTE      IE
      000000BBH   SFRSYM    DATA     BYTE      P_SW3
      000000BAH   SFRSYM    DATA     BYTE      P_SW2
      000000A2H   SFRSYM    DATA     BYTE      P_SW1
      000000CEH   SFRSYM    DATA     BYTE      SPCTL
      000000F8H   SFRSYM    DATA     BYTE      P7
      000000E8H   SFRSYM    DATA     BYTE      P6
      000000C8H   SFRSYM    DATA     BYTE      P5
      000000C0H   SFRSYM    DATA     BYTE      P4
      000000B0H   SFRSYM    DATA     BYTE      P3
      000000A0H   SFRSYM    DATA     BYTE      P2
      00000090H   SFRSYM    DATA     BYTE      P1
      00000080H   SFRSYM    DATA     BYTE      P0

      00FF1234H   BLOCK     CODE     ---       LVL=0
      00FF123AH   BLOCK     CODE     NEAR LAB  LVL=1
      R11         REGSYM    ---      BYTE      Status
      ---         BLOCKEND  ---      ---       LVL=1
      00FF1234H   LINE      CODE     ---       #27
      00FF123AH   LINE      CODE     ---       #28
      00FF123AH   LINE      CODE     ---       #31
      00FF123DH   LINE      CODE     ---       #33
      00FF123FH   LINE      CODE     ---       #36
      00FF124AH   LINE      CODE     ---       #37
      00FF124DH   LINE      CODE     ---       #39
      00FF124FH   LINE      CODE     ---       #40
      00FF124FH   LINE      CODE     ---       #42
      00FF1253H   LINE      CODE     ---       #44
      00FF1258H   LINE      CODE     ---       #45
      00FF1258H   LINE      CODE     ---       #46
      00FF1260H   LINE      CODE     ---       #49
      00FF126EH   LINE      CODE     ---       #50
      00FF1282H   LINE      CODE     ---       #51
L251 LINKER/LOCATER V4.66.93.0                                                        07/31/2024  16:59:11  PAGE 31


      00FF1288H   LINE      CODE     ---       #52
      00FF1288H   LINE      CODE     ---       #54
      00FF128BH   LINE      CODE     ---       #56
      00FF128DH   LINE      CODE     ---       #66
      00FF1292H   LINE      CODE     ---       #68
      ---         BLOCKEND  ---      ---       LVL=0

      00FF11CBH   BLOCK     CODE     ---       LVL=0
      00FF11D1H   BLOCK     CODE     NEAR LAB  LVL=1
      R11         REGSYM    ---      BYTE      Status
      ---         BLOCKEND  ---      ---       LVL=1
      00FF11CBH   LINE      CODE     ---       #80
      00FF11D1H   LINE      CODE     ---       #81
      00FF11D1H   LINE      CODE     ---       #84
      00FF11D5H   LINE      CODE     ---       #86
      00FF11D8H   LINE      CODE     ---       #89
      00FF11E3H   LINE      CODE     ---       #90
      00FF11E6H   LINE      CODE     ---       #92
      00FF11E8H   LINE      CODE     ---       #93
      00FF11E8H   LINE      CODE     ---       #95
      00FF11ECH   LINE      CODE     ---       #97
      00FF11F1H   LINE      CODE     ---       #98
      00FF11F1H   LINE      CODE     ---       #99
      00FF11F9H   LINE      CODE     ---       #102
      00FF1207H   LINE      CODE     ---       #103
      00FF121BH   LINE      CODE     ---       #104
      00FF1221H   LINE      CODE     ---       #105
      00FF1221H   LINE      CODE     ---       #107
      00FF1225H   LINE      CODE     ---       #109
      00FF1228H   LINE      CODE     ---       #119
      00FF122DH   LINE      CODE     ---       #121
      ---         BLOCKEND  ---      ---       LVL=0

      00FF15F1H   BLOCK     CODE     ---       LVL=0
      00FF15F1H   LINE      CODE     ---       #133
      00FF15F7H   LINE      CODE     ---       #135
      00FF15FBH   LINE      CODE     ---       #137
      00FF15FEH   LINE      CODE     ---       #139
      00FF160CH   LINE      CODE     ---       #140
      00FF1620H   LINE      CODE     ---       #141
      00FF1626H   LINE      CODE     ---       #142
      00FF1626H   LINE      CODE     ---       #144
      00FF162AH   LINE      CODE     ---       #146
      00FF162DH   LINE      CODE     ---       #156
      00FF1632H   LINE      CODE     ---       #158
      ---         BLOCKEND  ---      ---       LVL=0

      00FF1639H   BLOCK     CODE     ---       LVL=0
      00FF1639H   LINE      CODE     ---       #170
      00FF163FH   LINE      CODE     ---       #172
      00FF1643H   LINE      CODE     ---       #174
      00FF1646H   LINE      CODE     ---       #176
      00FF1654H   LINE      CODE     ---       #177
      00FF1668H   LINE      CODE     ---       #178
      00FF166EH   LINE      CODE     ---       #179
      00FF166EH   LINE      CODE     ---       #181
      00FF1672H   LINE      CODE     ---       #183
      00FF1675H   LINE      CODE     ---       #193
      00FF167AH   LINE      CODE     ---       #195
      ---         BLOCKEND  ---      ---       LVL=0

      ---         MODULE    ---      ---       STC32G_NVIC
      00FF1681H   PUBLIC    CODE     ---       NVIC_ADC_Init
      00FF16C9H   PUBLIC    CODE     ---       NVIC_UART1_Init
      000000F9H.3 SFRSYM    DATA     BIT       PLINH
L251 LINKER/LOCATER V4.66.93.0                                                        07/31/2024  16:59:11  PAGE 32


      000000D0H   SFRSYM    DATA     BYTE      PSW
      000000B6H.5 SFRSYM    DATA     BIT       PCMPH
      0000009DH   SFRSYM    DATA     BYTE      IRCBAND
      00000097H   SFRSYM    DATA     BYTE      AUXR2
      000000F9H.1 SFRSYM    DATA     BIT       LINIE
      000000F1H.0 SFRSYM    DATA     BIT       PCANL
      000000B7H.4 SFRSYM    DATA     BIT       PSH
      000000EFH   SFRSYM    DATA     BYTE      AUXINTIF
      000000F1H.3 SFRSYM    DATA     BIT       PCANH
      000000FDH   SFRSYM    DATA     BYTE      S4CON
      000000ACH   SFRSYM    DATA     BYTE      S3CON
      0000009AH   SFRSYM    DATA     BYTE      S2CON
      000000B7H   SFRSYM    DATA     BYTE      IPH
      000000B7H.5 SFRSYM    DATA     BIT       PADCH
      000000CDH   SFRSYM    DATA     BYTE      SPSTAT
      000000F1H.1 SFRSYM    DATA     BIT       CANIE
      000000E6H.5 SFRSYM    DATA     BIT       PIE
      000000DDH   SFRSYM    DATA     BYTE      T4T3M
      000000E6H.4 SFRSYM    DATA     BIT       NIE
      000000B8H.2 SFRSYM    DATA     BIT       PX1
      000000B8H.0 SFRSYM    DATA     BIT       PX0
      000000C1H   SFRSYM    DATA     BYTE      WDT_CONTR
      000000DFH.1 SFRSYM    DATA     BIT       PS4
      000000DFH.0 SFRSYM    DATA     BIT       PS3
      000000B5H.0 SFRSYM    DATA     BIT       PS2
      000000B8H.3 SFRSYM    DATA     BIT       PT1
      000000B8H.1 SFRSYM    DATA     BIT       PT0
      0000008FH.6 SFRSYM    DATA     BIT       EX4
      0000008FH.5 SFRSYM    DATA     BIT       EX3
      000000B6H.3 SFRSYM    DATA     BIT       PPWMBH
      0000008FH.4 SFRSYM    DATA     BIT       EX2
      000000B6H.2 SFRSYM    DATA     BIT       PPWMAH
      000000A8H.2 SFRSYM    DATA     BIT       EX1
      000000A8H.0 SFRSYM    DATA     BIT       EX0
      000000AFH.6 SFRSYM    DATA     BIT       ET4
      000000AFH.5 SFRSYM    DATA     BIT       ET3
      000000AFH.4 SFRSYM    DATA     BIT       ES4
      000000DFH   SFRSYM    DATA     BYTE      IP3
      000000F4H   SFRSYM    DATA     BYTE      USBCON
      000000AFH.3 SFRSYM    DATA     BIT       ES3
      000000AFH.2 SFRSYM    DATA     BIT       ET2
      000000B5H   SFRSYM    DATA     BYTE      IP2
      000000FFH   SFRSYM    DATA     BYTE      RSTCFG
      000000A8H.3 SFRSYM    DATA     BIT       ET1
      000000AFH.0 SFRSYM    DATA     BIT       ES2
      000000A8H.1 SFRSYM    DATA     BIT       ET0
      000000C7H   SFRSYM    DATA     BYTE      IAP_CONTR
      000000F9H   SFRSYM    DATA     BYTE      LINICR
      0000008EH   SFRSYM    DATA     BYTE      AUXR
      000000AFH   SFRSYM    DATA     BYTE      IE2
      000000B5H.1 SFRSYM    DATA     BIT       PSPI
      000000DFH.2 SFRSYM    DATA     BIT       PRTC
      00000088H   SFRSYM    DATA     BYTE      TCON
      00000089H   SFRSYM    DATA     BYTE      TMOD
      00000098H   SFRSYM    DATA     BYTE      SCON
      000000AFH.1 SFRSYM    DATA     BIT       ESPI
      000000F1H   SFRSYM    DATA     BYTE      CANICR
      00000087H   SFRSYM    DATA     BYTE      PCON
      000000B5H.5 SFRSYM    DATA     BIT       PCMP
      000000BCH   SFRSYM    DATA     BYTE      ADC_CONTR
      000000E7H   SFRSYM    DATA     BYTE      CMPCR2
      000000E6H   SFRSYM    DATA     BYTE      CMPCR1
      000000B8H.4 SFRSYM    DATA     BIT       PS
      000000B7H.2 SFRSYM    DATA     BIT       PX1H
      000000F1H.4 SFRSYM    DATA     BIT       PCAN2L
L251 LINKER/LOCATER V4.66.93.0                                                        07/31/2024  16:59:11  PAGE 33


      000000B7H.0 SFRSYM    DATA     BIT       PX0H
      000000EEH.1 SFRSYM    DATA     BIT       PS4H
      000000EEH.0 SFRSYM    DATA     BIT       PS3H
      000000B6H.0 SFRSYM    DATA     BIT       PS2H
      000000B7H.3 SFRSYM    DATA     BIT       PT1H
      000000F1H.7 SFRSYM    DATA     BIT       PCAN2H
      000000B7H.1 SFRSYM    DATA     BIT       PT0H
      000000DEH   SFRSYM    DATA     BYTE      ADCCFG
      000000B8H   SFRSYM    DATA     BYTE      IP
      000000B8H.5 SFRSYM    DATA     BIT       PADC
      000000A8H.4 SFRSYM    DATA     BIT       ES
      0000008FH   SFRSYM    DATA     BYTE      INTCLKO
      000000EEH   SFRSYM    DATA     BYTE      IP3H
      000000B6H   SFRSYM    DATA     BYTE      IP2H
      000000F1H.5 SFRSYM    DATA     BIT       CAN2IE
      000000A8H   SFRSYM    DATA     BYTE      IE
      000000A8H.5 SFRSYM    DATA     BIT       EADC
      000000BBH   SFRSYM    DATA     BYTE      P_SW3
      000000BAH   SFRSYM    DATA     BYTE      P_SW2
      000000A2H   SFRSYM    DATA     BYTE      P_SW1
      000000B5H.3 SFRSYM    DATA     BIT       PPWMB
      000000CEH   SFRSYM    DATA     BYTE      SPCTL
      000000B5H.2 SFRSYM    DATA     BIT       PPWMA
      000000F8H   SFRSYM    DATA     BYTE      P7
      000000B6H.1 SFRSYM    DATA     BIT       PSPIH
      000000E8H   SFRSYM    DATA     BYTE      P6
      000000C8H   SFRSYM    DATA     BYTE      P5
      000000C0H   SFRSYM    DATA     BYTE      P4
      000000B0H   SFRSYM    DATA     BYTE      P3
      000000EEH.2 SFRSYM    DATA     BIT       PRTCH
      000000A0H   SFRSYM    DATA     BYTE      P2
      00000090H   SFRSYM    DATA     BYTE      P1
      000000F9H.0 SFRSYM    DATA     BIT       PLINL
      00000080H   SFRSYM    DATA     BYTE      P0
      R7          REGSYM    ---      BYTE      State
      R6          REGSYM    ---      BYTE      Priority
      R7          REGSYM    ---      BYTE      State
      R6          REGSYM    ---      BYTE      Priority
      R7          REGSYM    ---      BYTE      State
      R7          REGSYM    ---      BYTE      State
      R7          REGSYM    ---      BYTE      State
      R7          REGSYM    ---      BYTE      State
      R6          REGSYM    ---      BYTE      Priority
      R7          REGSYM    ---      BYTE      State
      R6          REGSYM    ---      BYTE      Priority
      R7          REGSYM    ---      BYTE      State
      R7          REGSYM    ---      BYTE      State
      R7          REGSYM    ---      BYTE      State

      00FF1681H   BLOCK     CODE     ---       LVL=0
      R7          REGSYM    ---      BYTE      State
      R6          REGSYM    ---      BYTE      Priority
      00FF1681H   LINE      CODE     ---       #174
      00FF1685H   LINE      CODE     ---       #176
      00FF1699H   LINE      CODE     ---       #177
      00FF16C7H   LINE      CODE     ---       #178
      00FF16C8H   LINE      CODE     ---       #179
      ---         BLOCKEND  ---      ---       LVL=0
      R7          REGSYM    ---      BYTE      State
      R10         REGSYM    ---      BYTE      Priority
      R3          REGSYM    ---      BYTE      Mode
      R10         REGSYM    ---      BYTE      State
      R2          REGSYM    ---      BYTE      Priority

      00FF16C9H   BLOCK     CODE     ---       LVL=0
L251 LINKER/LOCATER V4.66.93.0                                                        07/31/2024  16:59:11  PAGE 34


      R7          REGSYM    ---      BYTE      State
      R6          REGSYM    ---      BYTE      Priority
      00FF16C9H   LINE      CODE     ---       #232
      00FF16CDH   LINE      CODE     ---       #234
      00FF16E1H   LINE      CODE     ---       #235
      00FF170FH   LINE      CODE     ---       #236
      00FF1710H   LINE      CODE     ---       #237
      ---         BLOCKEND  ---      ---       LVL=0
      R7          REGSYM    ---      BYTE      State
      R6          REGSYM    ---      BYTE      Priority
      R7          REGSYM    ---      BYTE      State
      R6          REGSYM    ---      BYTE      Priority
      R7          REGSYM    ---      BYTE      State
      R6          REGSYM    ---      BYTE      Priority
      R7          REGSYM    ---      BYTE      State
      R6          REGSYM    ---      BYTE      Priority
      R3          REGSYM    ---      BYTE      State
      R10         REGSYM    ---      BYTE      Priority
      R6          REGSYM    ---      BYTE      Channel
      R3          REGSYM    ---      BYTE      State
      R2          REGSYM    ---      BYTE      Priority
      R9          REGSYM    ---      BYTE      State
      R3          REGSYM    ---      BYTE      Priority
      R10         REGSYM    ---      BYTE      Bus_Priority
      R9          REGSYM    ---      BYTE      State
      R3          REGSYM    ---      BYTE      Priority
      R10         REGSYM    ---      BYTE      Bus_Priority
      R9          REGSYM    ---      BYTE      State
      R3          REGSYM    ---      BYTE      Priority
      R10         REGSYM    ---      BYTE      Bus_Priority
      R9          REGSYM    ---      BYTE      State
      R3          REGSYM    ---      BYTE      Priority
      R10         REGSYM    ---      BYTE      Bus_Priority
      R9          REGSYM    ---      BYTE      State
      R3          REGSYM    ---      BYTE      Priority
      R10         REGSYM    ---      BYTE      Bus_Priority
      R9          REGSYM    ---      BYTE      State
      R3          REGSYM    ---      BYTE      Priority
      R10         REGSYM    ---      BYTE      Bus_Priority
      R9          REGSYM    ---      BYTE      State
      R3          REGSYM    ---      BYTE      Priority
      R10         REGSYM    ---      BYTE      Bus_Priority
      R9          REGSYM    ---      BYTE      State
      R3          REGSYM    ---      BYTE      Priority
      R10         REGSYM    ---      BYTE      Bus_Priority
      R9          REGSYM    ---      BYTE      State
      R3          REGSYM    ---      BYTE      Priority
      R10         REGSYM    ---      BYTE      Bus_Priority
      R9          REGSYM    ---      BYTE      State
      R3          REGSYM    ---      BYTE      Priority
      R10         REGSYM    ---      BYTE      Bus_Priority
      R9          REGSYM    ---      BYTE      State
      R3          REGSYM    ---      BYTE      Priority
      R10         REGSYM    ---      BYTE      Bus_Priority
      R9          REGSYM    ---      BYTE      State
      R3          REGSYM    ---      BYTE      Priority
      R10         REGSYM    ---      BYTE      Bus_Priority
      R9          REGSYM    ---      BYTE      State
      R10         REGSYM    ---      BYTE      Priority
      R9          REGSYM    ---      BYTE      State
      R3          REGSYM    ---      BYTE      Priority
      R10         REGSYM    ---      BYTE      Bus_Priority
      R9          REGSYM    ---      BYTE      State
      R3          REGSYM    ---      BYTE      Priority
      R10         REGSYM    ---      BYTE      Bus_Priority
L251 LINKER/LOCATER V4.66.93.0                                                        07/31/2024  16:59:11  PAGE 35


      R11         REGSYM    ---      BYTE      Channel
      R10         REGSYM    ---      BYTE      State
      R6          REGSYM    ---      BYTE      Priority
      R7          REGSYM    ---      BYTE      State
      R6          REGSYM    ---      BYTE      Priority

      ---         MODULE    ---      ---       STC32G_ADC
      00FF1541H   PUBLIC    CODE     ---       ADC_Inilize
      00FF17DBH   PUBLIC    CODE     ---       ADC_PowerControl
      00FF14E2H   PUBLIC    CODE     ---       Get_ADCResult
      000000D0H   SFRSYM    DATA     BYTE      PSW
      0000009DH   SFRSYM    DATA     BYTE      IRCBAND
      00000097H   SFRSYM    DATA     BYTE      AUXR2
      000000EFH   SFRSYM    DATA     BYTE      AUXINTIF
      000000FDH   SFRSYM    DATA     BYTE      S4CON
      000000ACH   SFRSYM    DATA     BYTE      S3CON
      0000009AH   SFRSYM    DATA     BYTE      S2CON
      000000B7H   SFRSYM    DATA     BYTE      IPH
      000000CDH   SFRSYM    DATA     BYTE      SPSTAT
      000000BEH   SFRSYM    DATA     BYTE      ADC_RESL
      000000DDH   SFRSYM    DATA     BYTE      T4T3M
      000000C1H   SFRSYM    DATA     BYTE      WDT_CONTR
      000000DEH.5 SFRSYM    DATA     BIT       RESFMT
      000000DFH   SFRSYM    DATA     BYTE      IP3
      000000F4H   SFRSYM    DATA     BYTE      USBCON
      000000B5H   SFRSYM    DATA     BYTE      IP2
      000000FFH   SFRSYM    DATA     BYTE      RSTCFG
      000000BCH.5 SFRSYM    DATA     BIT       ADC_FLAG
      000000C7H   SFRSYM    DATA     BYTE      IAP_CONTR
      000000F9H   SFRSYM    DATA     BYTE      LINICR
      0000008EH   SFRSYM    DATA     BYTE      AUXR
      000000AFH   SFRSYM    DATA     BYTE      IE2
      000000BCH.6 SFRSYM    DATA     BIT       ADC_START
      000000BCH.7 SFRSYM    DATA     BIT       ADC_POWER
      00000088H   SFRSYM    DATA     BYTE      TCON
      00000089H   SFRSYM    DATA     BYTE      TMOD
      00000098H   SFRSYM    DATA     BYTE      SCON
      000000F1H   SFRSYM    DATA     BYTE      CANICR
      00000087H   SFRSYM    DATA     BYTE      PCON
      000000BCH   SFRSYM    DATA     BYTE      ADC_CONTR
      000000E7H   SFRSYM    DATA     BYTE      CMPCR2
      000000E6H   SFRSYM    DATA     BYTE      CMPCR1
      000000DEH   SFRSYM    DATA     BYTE      ADCCFG
      000000B8H   SFRSYM    DATA     BYTE      IP
      0000008FH   SFRSYM    DATA     BYTE      INTCLKO
      000000EEH   SFRSYM    DATA     BYTE      IP3H
      000000B6H   SFRSYM    DATA     BYTE      IP2H
      000000BDH   SFRSYM    DATA     BYTE      ADC_RES
      000000A8H   SFRSYM    DATA     BYTE      IE
      000000BBH   SFRSYM    DATA     BYTE      P_SW3
      000000BAH   SFRSYM    DATA     BYTE      P_SW2
      000000A2H   SFRSYM    DATA     BYTE      P_SW1
      000000CEH   SFRSYM    DATA     BYTE      SPCTL
      000000F8H   SFRSYM    DATA     BYTE      P7
      000000E8H   SFRSYM    DATA     BYTE      P6
      000000C8H   SFRSYM    DATA     BYTE      P5
      000000C0H   SFRSYM    DATA     BYTE      P4
      000000B0H   SFRSYM    DATA     BYTE      P3
      000000A0H   SFRSYM    DATA     BYTE      P2
      00000090H   SFRSYM    DATA     BYTE      P1
      00000080H   SFRSYM    DATA     BYTE      P0

      00FF1541H   BLOCK     CODE     ---       LVL=0
      REG=7       REGSYM    ---      ---       ADCx
      00FF1541H   LINE      CODE     ---       #23
L251 LINKER/LOCATER V4.66.93.0                                                        07/31/2024  16:59:11  PAGE 36


      00FF1543H   LINE      CODE     ---       #25
      00FF154FH   LINE      CODE     ---       #26
      00FF155DH   LINE      CODE     ---       #28
      00FF1568H   LINE      CODE     ---       #29
      00FF1574H   LINE      CODE     ---       #30
      00FF1580H   LINE      CODE     ---       #32
      00FF159CH   LINE      CODE     ---       #33
      00FF159DH   LINE      CODE     ---       #34
      ---         BLOCKEND  ---      ---       LVL=0

      00FF17DBH   BLOCK     CODE     ---       LVL=0
      R7          REGSYM    ---      BYTE      pwr
      00FF17DBH   LINE      CODE     ---       #44
      00FF17DDH   LINE      CODE     ---       #46
      00FF17E5H   LINE      CODE     ---       #47
      00FF17E8H   LINE      CODE     ---       #48
      ---         BLOCKEND  ---      ---       LVL=0

      00FF14E2H   BLOCK     CODE     ---       LVL=0
      R10         REGSYM    ---      BYTE      channel
      00FF14E4H   BLOCK     CODE     NEAR LAB  LVL=1
      WR8         REGSYM    ---      WORD      adc
      R7          REGSYM    ---      BYTE      i
      ---         BLOCKEND  ---      ---       LVL=1
      00FF14E2H   LINE      CODE     ---       #57
      00FF14E4H   LINE      CODE     ---       #58
      00FF14E4H   LINE      CODE     ---       #62
      00FF14EBH   LINE      CODE     ---       #63
      00FF14EEH   LINE      CODE     ---       #64
      00FF14F1H   LINE      CODE     ---       #66
      00FF14F9H   LINE      CODE     ---       #67
      00FF14FCH   LINE      CODE     ---       #68
      00FF1506H   LINE      CODE     ---       #70
      00FF1509H   LINE      CODE     ---       #72
      00FF150DH   LINE      CODE     ---       #74
      00FF1510H   LINE      CODE     ---       #75
      00FF1514H   LINE      CODE     ---       #77
      00FF151CH   LINE      CODE     ---       #78
      00FF151EH   LINE      CODE     ---       #81
      00FF1522H   LINE      CODE     ---       #82
      00FF1535H   LINE      CODE     ---       #83
      00FF1535H   LINE      CODE     ---       #84
      00FF1538H   LINE      CODE     ---       #85
      00FF153CH   LINE      CODE     ---       #87
      00FF1540H   LINE      CODE     ---       #88
      ---         BLOCKEND  ---      ---       LVL=0

      ---         MODULE    ---      ---       STC32G_PWM
      000000D0H   SFRSYM    DATA     BYTE      PSW
      0000009DH   SFRSYM    DATA     BYTE      IRCBAND
      00000097H   SFRSYM    DATA     BYTE      AUXR2
      000000EFH   SFRSYM    DATA     BYTE      AUXINTIF
      000000FDH   SFRSYM    DATA     BYTE      S4CON
      000000ACH   SFRSYM    DATA     BYTE      S3CON
      0000009AH   SFRSYM    DATA     BYTE      S2CON
      000000B7H   SFRSYM    DATA     BYTE      IPH
      000000CDH   SFRSYM    DATA     BYTE      SPSTAT
      000000DDH   SFRSYM    DATA     BYTE      T4T3M
      000000C1H   SFRSYM    DATA     BYTE      WDT_CONTR
      000000DFH   SFRSYM    DATA     BYTE      IP3
      000000F4H   SFRSYM    DATA     BYTE      USBCON
      000000B5H   SFRSYM    DATA     BYTE      IP2
      000000FFH   SFRSYM    DATA     BYTE      RSTCFG
      000000C7H   SFRSYM    DATA     BYTE      IAP_CONTR
      000000F9H   SFRSYM    DATA     BYTE      LINICR
L251 LINKER/LOCATER V4.66.93.0                                                        07/31/2024  16:59:11  PAGE 37


      0000008EH   SFRSYM    DATA     BYTE      AUXR
      000000AFH   SFRSYM    DATA     BYTE      IE2
      00000088H   SFRSYM    DATA     BYTE      TCON
      00000089H   SFRSYM    DATA     BYTE      TMOD
      00000098H   SFRSYM    DATA     BYTE      SCON
      000000F1H   SFRSYM    DATA     BYTE      CANICR
      00000087H   SFRSYM    DATA     BYTE      PCON
      000000BCH   SFRSYM    DATA     BYTE      ADC_CONTR
      000000E7H   SFRSYM    DATA     BYTE      CMPCR2
      000000E6H   SFRSYM    DATA     BYTE      CMPCR1
      000000DEH   SFRSYM    DATA     BYTE      ADCCFG
      000000B8H   SFRSYM    DATA     BYTE      IP
      0000008FH   SFRSYM    DATA     BYTE      INTCLKO
      000000EEH   SFRSYM    DATA     BYTE      IP3H
      000000B6H   SFRSYM    DATA     BYTE      IP2H
      000000A8H   SFRSYM    DATA     BYTE      IE
      000000BBH   SFRSYM    DATA     BYTE      P_SW3
      000000BAH   SFRSYM    DATA     BYTE      P_SW2
      000000A2H   SFRSYM    DATA     BYTE      P_SW1
      000000CEH   SFRSYM    DATA     BYTE      SPCTL
      000000F8H   SFRSYM    DATA     BYTE      P7
      000000E8H   SFRSYM    DATA     BYTE      P6
      000000C8H   SFRSYM    DATA     BYTE      P5
      000000C0H   SFRSYM    DATA     BYTE      P4
      000000B0H   SFRSYM    DATA     BYTE      P3
      000000A0H   SFRSYM    DATA     BYTE      P2
      00000090H   SFRSYM    DATA     BYTE      P1
      00000080H   SFRSYM    DATA     BYTE      P0
      R7          REGSYM    ---      BYTE      PWM
      REG=7       REGSYM    ---      ---       PWMx
      R11         REGSYM    ---      BYTE      PWM
      REG=7       REGSYM    ---      ---       PWMx
      R10         REGSYM    ---      BYTE      addr
      R11         REGSYM    ---      BYTE      dat
      R10         REGSYM    ---      BYTE      addr
      R11         REGSYM    ---      BYTE      dat
      R2          REGSYM    ---      BYTE      addr
      R10         REGSYM    ---      BYTE      dat
      R2          REGSYM    ---      BYTE      addr
      R10         REGSYM    ---      BYTE      dat
      R7          REGSYM    ---      BYTE      PWM
      REG=3       REGSYM    ---      ---       PWMx
      R11         REGSYM    ---      BYTE      PWM
      REG=3       REGSYM    ---      ---       PWMx

      ---         MODULE    ---      ---       ?C?FPADD
      00FF016CH   PUBLIC    CODE     ---       ?C?FPADD
      00FF0169H   PUBLIC    CODE     ---       ?C?FPSUB

      ---         MODULE    ---      ---       ?C?FPMUL
      00FF0224H   PUBLIC    CODE     ---       ?C?FPMUL

      ---         MODULE    ---      ---       ?C?FPDIV
      00FF02C4H   PUBLIC    CODE     ---       ?C?FPDIV

      ---         MODULE    ---      ---       ?C?FPCMP
      00FF0347H   PUBLIC    CODE     ---       ?C?FPCMP
      00FF0345H   PUBLIC    CODE     ---       ?C?FPCMP3

      ---         MODULE    ---      ---       ?C?FCAST
      00FF0395H   PUBLIC    CODE     NEAR LAB  ?C?FCASTC
      00FF0390H   PUBLIC    CODE     NEAR LAB  ?C?FCASTI
      00FF038BH   PUBLIC    CODE     NEAR LAB  ?C?FCASTL

      ---         MODULE    ---      ---       PRINTF
L251 LINKER/LOCATER V4.66.93.0                                                        07/31/2024  16:59:11  PAGE 38


      0000035DH   PUBLIC    EDATA    ---       ?PRINTF?BYTE
      00FF03C8H   PUBLIC    CODE     NEAR LAB  PRINTF

      ---         MODULE    ---      ---       LOG?_
      00FF0420H   PUBLIC    CODE     NEAR LAB  LOG?_

      ---         MODULE    ---      ---       ?C?FPGETOPN
      00FF04E5H   PUBLIC    CODE     ---       ?C?FPGETOPN2
      00FF0522H   PUBLIC    CODE     ---       ?C?FPNANRESULT
      00FF052AH   PUBLIC    CODE     ---       ?C?FPOVERFLOW
      00FF04FEH   PUBLIC    CODE     ---       ?C?FPRESULT
      00FF0514H   PUBLIC    CODE     ---       ?C?FPRESULT2
      00FF0527H   PUBLIC    CODE     ---       ?C?FPUNDERFLOW

      ---         MODULE    ---      ---       ?C?PRNFMT
      00FF0563H   PUBLIC    CODE     ---       ?C?PRNFMT

      ---         MODULE    ---      ---       ?C?FPSERIES
      00FF0972H   PUBLIC    CODE     ---       ?C?FP2SERIES
      00FF097BH   PUBLIC    CODE     ---       ?C?FPSERIES

      ---         MODULE    ---      ---       ?C?FPCONVERT
      00FF09ADH   PUBLIC    CODE     ---       ?C?FPCONVERT
      00FF0A65H   PUBLIC    CODE     ---       ?C?FPROUND

      ---         MODULE    ---      ---       ?C?FTNPWR
      00FF0AD8H   PUBLIC    CODE     ---       ?C?FTNPWR

      ---         MODULE    ---      ---       ?C_START
      00FF0000H   PUBLIC    CODE     ---       ?C?STARTUP
      00FF0000H   PUBLIC    CODE     ---       ?C_STARTUP

      ---         MODULE    ---      ---       ?C?ULDIV
      00FF0B11H   PUBLIC    CODE     NEAR LAB  ?C?ULDIV
      00FF0B0FH   PUBLIC    CODE     NEAR LAB  ?C?ULIDIV

Program Size: data=8.4 edata+hdata=1141 xdata=0 const=358 code=6054
L251 RUN COMPLETE.  0 WARNING(S),  0 ERROR(S)
